
obj/kern/kernel:     file format elf64-x86-64


Disassembly of section .bootstrap:

0000000000100000 <_head64>:
.globl _head64
_head64:

# Save multiboot_info addr passed by bootloader
	
    movl $multiboot_info, %eax
  100000:	b8 00 70 10 00       	mov    $0x107000,%eax
    movl %ebx, (%eax)
  100005:	89 18                	mov    %ebx,(%rax)

    movw $0x1234,0x472			# warm boot	
  100007:	66 c7 05 72 04 00 00 	movw   $0x1234,0x472(%rip)        # 100482 <verify_cpu_no_longmode+0x36f>
  10000e:	34 12 
	
# Reset the stack pointer in case we didn't come from the loader
    movl $0x7c00,%esp
  100010:	bc 00 7c 00 00       	mov    $0x7c00,%esp

    call verify_cpu   #check if CPU supports long mode
  100015:	e8 cc 00 00 00       	callq  1000e6 <verify_cpu>
    movl $CR4_PAE,%eax	
  10001a:	b8 20 00 00 00       	mov    $0x20,%eax
    movl %eax,%cr4
  10001f:	0f 22 e0             	mov    %rax,%cr4

# build an early boot pml4 at physical address pml4phys 

    #initializing the page tables
    movl $pml4,%edi
  100022:	bf 00 20 10 00       	mov    $0x102000,%edi
    xorl %eax,%eax
  100027:	31 c0                	xor    %eax,%eax
    movl $((4096/4)*5),%ecx  # moving these many words to the 6 pages with 4 second level pages + 1 3rd level + 1 4th level pages 
  100029:	b9 00 14 00 00       	mov    $0x1400,%ecx
    rep stosl
  10002e:	f3 ab                	rep stos %eax,%es:(%rdi)
    # creating a 4G boot page table
    # setting the 4th level page table only the second entry needed (PML4)
    movl $pml4,%eax
  100030:	b8 00 20 10 00       	mov    $0x102000,%eax
    movl $pdpt1, %ebx
  100035:	bb 00 30 10 00       	mov    $0x103000,%ebx
    orl $PTE_P,%ebx
  10003a:	83 cb 01             	or     $0x1,%ebx
    orl $PTE_W,%ebx
  10003d:	83 cb 02             	or     $0x2,%ebx
    movl %ebx,(%eax)
  100040:	89 18                	mov    %ebx,(%rax)

    movl $pdpt2, %ebx
  100042:	bb 00 40 10 00       	mov    $0x104000,%ebx
    orl $PTE_P,%ebx
  100047:	83 cb 01             	or     $0x1,%ebx
    orl $PTE_W,%ebx
  10004a:	83 cb 02             	or     $0x2,%ebx
    movl %ebx,0x8(%eax)
  10004d:	89 58 08             	mov    %ebx,0x8(%rax)

    # setting the 3rd level page table (PDPE)
    # 4 entries (counter in ecx), point to the next four physical pages (pgdirs)
    # pgdirs in 0xa0000--0xd000
    movl $pdpt1,%edi
  100050:	bf 00 30 10 00       	mov    $0x103000,%edi
    movl $pde1,%ebx
  100055:	bb 00 50 10 00       	mov    $0x105000,%ebx
    orl $PTE_P,%ebx
  10005a:	83 cb 01             	or     $0x1,%ebx
    orl $PTE_W,%ebx
  10005d:	83 cb 02             	or     $0x2,%ebx
    movl %ebx,(%edi)
  100060:	89 1f                	mov    %ebx,(%rdi)

    movl $pdpt2,%edi
  100062:	bf 00 40 10 00       	mov    $0x104000,%edi
    movl $pde2,%ebx
  100067:	bb 00 60 10 00       	mov    $0x106000,%ebx
    orl $PTE_P,%ebx
  10006c:	83 cb 01             	or     $0x1,%ebx
    orl $PTE_W,%ebx
  10006f:	83 cb 02             	or     $0x2,%ebx
    movl %ebx,(%edi)
  100072:	89 1f                	mov    %ebx,(%rdi)
    
    # setting the pgdir so that the LA=PA
    # mapping first 1G of mem at KERNBASE
    movl $128,%ecx
  100074:	b9 80 00 00 00       	mov    $0x80,%ecx
    # Start at the end and work backwards
    #leal (pml4 + 5*0x1000 - 0x8),%edi
    movl $pde1,%edi
  100079:	bf 00 50 10 00       	mov    $0x105000,%edi
    movl $pde2,%ebx
  10007e:	bb 00 60 10 00       	mov    $0x106000,%ebx
    #64th entry - 0x8004000000
    addl $256,%ebx 
  100083:	81 c3 00 01 00 00    	add    $0x100,%ebx
    # PTE_P|PTE_W|PTE_MBZ
    movl $0x00000183,%eax
  100089:	b8 83 01 00 00       	mov    $0x183,%eax
  1:
     movl %eax,(%edi)
  10008e:	89 07                	mov    %eax,(%rdi)
     movl %eax,(%ebx)
  100090:	89 03                	mov    %eax,(%rbx)
     addl $0x8,%edi
  100092:	83 c7 08             	add    $0x8,%edi
     addl $0x8,%ebx
  100095:	83 c3 08             	add    $0x8,%ebx
     addl $0x00200000,%eax
  100098:	05 00 00 20 00       	add    $0x200000,%eax
     subl $1,%ecx
  10009d:	83 e9 01             	sub    $0x1,%ecx
     cmp $0x0,%ecx
  1000a0:	83 f9 00             	cmp    $0x0,%ecx
     jne 1b
  1000a3:	75 e9                	jne    10008e <_head64+0x8e>
 /*    subl $1,%ecx */
 /*    cmp $0x0,%ecx */
 /*    jne 1b */

    # set the cr3 register
    movl $pml4,%eax
  1000a5:	b8 00 20 10 00       	mov    $0x102000,%eax
    movl %eax, %cr3
  1000aa:	0f 22 d8             	mov    %rax,%cr3

	
    # enable the long mode in MSR
    movl $EFER_MSR,%ecx
  1000ad:	b9 80 00 00 c0       	mov    $0xc0000080,%ecx
    rdmsr
  1000b2:	0f 32                	rdmsr  
    btsl $EFER_LME,%eax
  1000b4:	0f ba e8 08          	bts    $0x8,%eax
    wrmsr
  1000b8:	0f 30                	wrmsr  
    
    # enable paging 
    movl %cr0,%eax
  1000ba:	0f 20 c0             	mov    %cr0,%rax
    orl $CR0_PE,%eax
  1000bd:	83 c8 01             	or     $0x1,%eax
    orl $CR0_PG,%eax
  1000c0:	0d 00 00 00 80       	or     $0x80000000,%eax
    orl $CR0_AM,%eax
  1000c5:	0d 00 00 04 00       	or     $0x40000,%eax
    orl $CR0_WP,%eax
  1000ca:	0d 00 00 01 00       	or     $0x10000,%eax
    orl $CR0_MP,%eax
  1000cf:	83 c8 02             	or     $0x2,%eax
    movl %eax,%cr0
  1000d2:	0f 22 c0             	mov    %rax,%cr0
    #jump to long mode with CS=0 and

    movl $gdtdesc_64,%eax
  1000d5:	b8 18 10 10 00       	mov    $0x101018,%eax
    lgdt (%eax)
  1000da:	0f 01 10             	lgdt   (%rax)
    pushl $0x8
  1000dd:	6a 08                	pushq  $0x8
    movl $_start,%eax
  1000df:	b8 0c 00 20 00       	mov    $0x20000c,%eax
    pushl %eax
  1000e4:	50                   	push   %rax

00000000001000e5 <jumpto_longmode>:
    
    .globl jumpto_longmode
    .type jumpto_longmode,@function
jumpto_longmode:
    lret
  1000e5:	cb                   	lret   

00000000001000e6 <verify_cpu>:
/*     movabs $_back_from_head64, %rax */
/*     pushq %rax */
/*     lretq */

verify_cpu:
    pushfl                   # get eflags in eax -- standardard way to check for cpuid
  1000e6:	9c                   	pushfq 
    popl %eax
  1000e7:	58                   	pop    %rax
    movl %eax,%ecx
  1000e8:	89 c1                	mov    %eax,%ecx
    xorl $0x200000, %eax
  1000ea:	35 00 00 20 00       	xor    $0x200000,%eax
    pushl %eax
  1000ef:	50                   	push   %rax
    popfl
  1000f0:	9d                   	popfq  
    pushfl
  1000f1:	9c                   	pushfq 
    popl %eax
  1000f2:	58                   	pop    %rax
    cmpl %eax,%ebx
  1000f3:	39 c3                	cmp    %eax,%ebx
    jz verify_cpu_no_longmode   # no cpuid -- no long mode
  1000f5:	74 1c                	je     100113 <verify_cpu_no_longmode>

    movl $0x0,%eax              # see if cpuid 1 is implemented
  1000f7:	b8 00 00 00 00       	mov    $0x0,%eax
    cpuid
  1000fc:	0f a2                	cpuid  
    cmpl $0x1,%eax
  1000fe:	83 f8 01             	cmp    $0x1,%eax
    jb verify_cpu_no_longmode    # cpuid 1 is not implemented
  100101:	72 10                	jb     100113 <verify_cpu_no_longmode>


    mov $0x80000001, %eax
  100103:	b8 01 00 00 80       	mov    $0x80000001,%eax
    cpuid                 
  100108:	0f a2                	cpuid  
    test $(1 << 29),%edx                 #Test if the LM-bit, is set or not.
  10010a:	f7 c2 00 00 00 20    	test   $0x20000000,%edx
    jz verify_cpu_no_longmode
  100110:	74 01                	je     100113 <verify_cpu_no_longmode>

    ret
  100112:	c3                   	retq   

0000000000100113 <verify_cpu_no_longmode>:

verify_cpu_no_longmode:
    jmp verify_cpu_no_longmode
  100113:	eb fe                	jmp    100113 <verify_cpu_no_longmode>
  100115:	66 2e 0f 1f 84 00 00 	nopw   %cs:0x0(%rax,%rax,1)
  10011c:	00 00 00 
  10011f:	66 2e 0f 1f 84 00 00 	nopw   %cs:0x0(%rax,%rax,1)
  100126:	00 00 00 
  100129:	66 2e 0f 1f 84 00 00 	nopw   %cs:0x0(%rax,%rax,1)
  100130:	00 00 00 
  100133:	66 2e 0f 1f 84 00 00 	nopw   %cs:0x0(%rax,%rax,1)
  10013a:	00 00 00 
  10013d:	66 2e 0f 1f 84 00 00 	nopw   %cs:0x0(%rax,%rax,1)
  100144:	00 00 00 
  100147:	66 2e 0f 1f 84 00 00 	nopw   %cs:0x0(%rax,%rax,1)
  10014e:	00 00 00 
  100151:	66 2e 0f 1f 84 00 00 	nopw   %cs:0x0(%rax,%rax,1)
  100158:	00 00 00 
  10015b:	66 2e 0f 1f 84 00 00 	nopw   %cs:0x0(%rax,%rax,1)
  100162:	00 00 00 
  100165:	66 2e 0f 1f 84 00 00 	nopw   %cs:0x0(%rax,%rax,1)
  10016c:	00 00 00 
  10016f:	66 2e 0f 1f 84 00 00 	nopw   %cs:0x0(%rax,%rax,1)
  100176:	00 00 00 
  100179:	66 2e 0f 1f 84 00 00 	nopw   %cs:0x0(%rax,%rax,1)
  100180:	00 00 00 
  100183:	66 2e 0f 1f 84 00 00 	nopw   %cs:0x0(%rax,%rax,1)
  10018a:	00 00 00 
  10018d:	66 2e 0f 1f 84 00 00 	nopw   %cs:0x0(%rax,%rax,1)
  100194:	00 00 00 
  100197:	66 2e 0f 1f 84 00 00 	nopw   %cs:0x0(%rax,%rax,1)
  10019e:	00 00 00 
  1001a1:	66 2e 0f 1f 84 00 00 	nopw   %cs:0x0(%rax,%rax,1)
  1001a8:	00 00 00 
  1001ab:	66 2e 0f 1f 84 00 00 	nopw   %cs:0x0(%rax,%rax,1)
  1001b2:	00 00 00 
  1001b5:	66 2e 0f 1f 84 00 00 	nopw   %cs:0x0(%rax,%rax,1)
  1001bc:	00 00 00 
  1001bf:	66 2e 0f 1f 84 00 00 	nopw   %cs:0x0(%rax,%rax,1)
  1001c6:	00 00 00 
  1001c9:	66 2e 0f 1f 84 00 00 	nopw   %cs:0x0(%rax,%rax,1)
  1001d0:	00 00 00 
  1001d3:	66 2e 0f 1f 84 00 00 	nopw   %cs:0x0(%rax,%rax,1)
  1001da:	00 00 00 
  1001dd:	66 2e 0f 1f 84 00 00 	nopw   %cs:0x0(%rax,%rax,1)
  1001e4:	00 00 00 
  1001e7:	66 2e 0f 1f 84 00 00 	nopw   %cs:0x0(%rax,%rax,1)
  1001ee:	00 00 00 
  1001f1:	66 2e 0f 1f 84 00 00 	nopw   %cs:0x0(%rax,%rax,1)
  1001f8:	00 00 00 
  1001fb:	66 2e 0f 1f 84 00 00 	nopw   %cs:0x0(%rax,%rax,1)
  100202:	00 00 00 
  100205:	66 2e 0f 1f 84 00 00 	nopw   %cs:0x0(%rax,%rax,1)
  10020c:	00 00 00 
  10020f:	66 2e 0f 1f 84 00 00 	nopw   %cs:0x0(%rax,%rax,1)
  100216:	00 00 00 
  100219:	66 2e 0f 1f 84 00 00 	nopw   %cs:0x0(%rax,%rax,1)
  100220:	00 00 00 
  100223:	66 2e 0f 1f 84 00 00 	nopw   %cs:0x0(%rax,%rax,1)
  10022a:	00 00 00 
  10022d:	66 2e 0f 1f 84 00 00 	nopw   %cs:0x0(%rax,%rax,1)
  100234:	00 00 00 
  100237:	66 2e 0f 1f 84 00 00 	nopw   %cs:0x0(%rax,%rax,1)
  10023e:	00 00 00 
  100241:	66 2e 0f 1f 84 00 00 	nopw   %cs:0x0(%rax,%rax,1)
  100248:	00 00 00 
  10024b:	66 2e 0f 1f 84 00 00 	nopw   %cs:0x0(%rax,%rax,1)
  100252:	00 00 00 
  100255:	66 2e 0f 1f 84 00 00 	nopw   %cs:0x0(%rax,%rax,1)
  10025c:	00 00 00 
  10025f:	66 2e 0f 1f 84 00 00 	nopw   %cs:0x0(%rax,%rax,1)
  100266:	00 00 00 
  100269:	66 2e 0f 1f 84 00 00 	nopw   %cs:0x0(%rax,%rax,1)
  100270:	00 00 00 
  100273:	66 2e 0f 1f 84 00 00 	nopw   %cs:0x0(%rax,%rax,1)
  10027a:	00 00 00 
  10027d:	66 2e 0f 1f 84 00 00 	nopw   %cs:0x0(%rax,%rax,1)
  100284:	00 00 00 
  100287:	66 2e 0f 1f 84 00 00 	nopw   %cs:0x0(%rax,%rax,1)
  10028e:	00 00 00 
  100291:	66 2e 0f 1f 84 00 00 	nopw   %cs:0x0(%rax,%rax,1)
  100298:	00 00 00 
  10029b:	66 2e 0f 1f 84 00 00 	nopw   %cs:0x0(%rax,%rax,1)
  1002a2:	00 00 00 
  1002a5:	66 2e 0f 1f 84 00 00 	nopw   %cs:0x0(%rax,%rax,1)
  1002ac:	00 00 00 
  1002af:	66 2e 0f 1f 84 00 00 	nopw   %cs:0x0(%rax,%rax,1)
  1002b6:	00 00 00 
  1002b9:	66 2e 0f 1f 84 00 00 	nopw   %cs:0x0(%rax,%rax,1)
  1002c0:	00 00 00 
  1002c3:	66 2e 0f 1f 84 00 00 	nopw   %cs:0x0(%rax,%rax,1)
  1002ca:	00 00 00 
  1002cd:	66 2e 0f 1f 84 00 00 	nopw   %cs:0x0(%rax,%rax,1)
  1002d4:	00 00 00 
  1002d7:	66 2e 0f 1f 84 00 00 	nopw   %cs:0x0(%rax,%rax,1)
  1002de:	00 00 00 
  1002e1:	66 2e 0f 1f 84 00 00 	nopw   %cs:0x0(%rax,%rax,1)
  1002e8:	00 00 00 
  1002eb:	66 2e 0f 1f 84 00 00 	nopw   %cs:0x0(%rax,%rax,1)
  1002f2:	00 00 00 
  1002f5:	66 2e 0f 1f 84 00 00 	nopw   %cs:0x0(%rax,%rax,1)
  1002fc:	00 00 00 
  1002ff:	66 2e 0f 1f 84 00 00 	nopw   %cs:0x0(%rax,%rax,1)
  100306:	00 00 00 
  100309:	66 2e 0f 1f 84 00 00 	nopw   %cs:0x0(%rax,%rax,1)
  100310:	00 00 00 
  100313:	66 2e 0f 1f 84 00 00 	nopw   %cs:0x0(%rax,%rax,1)
  10031a:	00 00 00 
  10031d:	66 2e 0f 1f 84 00 00 	nopw   %cs:0x0(%rax,%rax,1)
  100324:	00 00 00 
  100327:	66 2e 0f 1f 84 00 00 	nopw   %cs:0x0(%rax,%rax,1)
  10032e:	00 00 00 
  100331:	66 2e 0f 1f 84 00 00 	nopw   %cs:0x0(%rax,%rax,1)
  100338:	00 00 00 
  10033b:	66 2e 0f 1f 84 00 00 	nopw   %cs:0x0(%rax,%rax,1)
  100342:	00 00 00 
  100345:	66 2e 0f 1f 84 00 00 	nopw   %cs:0x0(%rax,%rax,1)
  10034c:	00 00 00 
  10034f:	66 2e 0f 1f 84 00 00 	nopw   %cs:0x0(%rax,%rax,1)
  100356:	00 00 00 
  100359:	66 2e 0f 1f 84 00 00 	nopw   %cs:0x0(%rax,%rax,1)
  100360:	00 00 00 
  100363:	66 2e 0f 1f 84 00 00 	nopw   %cs:0x0(%rax,%rax,1)
  10036a:	00 00 00 
  10036d:	66 2e 0f 1f 84 00 00 	nopw   %cs:0x0(%rax,%rax,1)
  100374:	00 00 00 
  100377:	66 2e 0f 1f 84 00 00 	nopw   %cs:0x0(%rax,%rax,1)
  10037e:	00 00 00 
  100381:	66 2e 0f 1f 84 00 00 	nopw   %cs:0x0(%rax,%rax,1)
  100388:	00 00 00 
  10038b:	66 2e 0f 1f 84 00 00 	nopw   %cs:0x0(%rax,%rax,1)
  100392:	00 00 00 
  100395:	66 2e 0f 1f 84 00 00 	nopw   %cs:0x0(%rax,%rax,1)
  10039c:	00 00 00 
  10039f:	66 2e 0f 1f 84 00 00 	nopw   %cs:0x0(%rax,%rax,1)
  1003a6:	00 00 00 
  1003a9:	66 2e 0f 1f 84 00 00 	nopw   %cs:0x0(%rax,%rax,1)
  1003b0:	00 00 00 
  1003b3:	66 2e 0f 1f 84 00 00 	nopw   %cs:0x0(%rax,%rax,1)
  1003ba:	00 00 00 
  1003bd:	66 2e 0f 1f 84 00 00 	nopw   %cs:0x0(%rax,%rax,1)
  1003c4:	00 00 00 
  1003c7:	66 2e 0f 1f 84 00 00 	nopw   %cs:0x0(%rax,%rax,1)
  1003ce:	00 00 00 
  1003d1:	66 2e 0f 1f 84 00 00 	nopw   %cs:0x0(%rax,%rax,1)
  1003d8:	00 00 00 
  1003db:	66 2e 0f 1f 84 00 00 	nopw   %cs:0x0(%rax,%rax,1)
  1003e2:	00 00 00 
  1003e5:	66 2e 0f 1f 84 00 00 	nopw   %cs:0x0(%rax,%rax,1)
  1003ec:	00 00 00 
  1003ef:	66 2e 0f 1f 84 00 00 	nopw   %cs:0x0(%rax,%rax,1)
  1003f6:	00 00 00 
  1003f9:	66 2e 0f 1f 84 00 00 	nopw   %cs:0x0(%rax,%rax,1)
  100400:	00 00 00 
  100403:	66 2e 0f 1f 84 00 00 	nopw   %cs:0x0(%rax,%rax,1)
  10040a:	00 00 00 
  10040d:	66 2e 0f 1f 84 00 00 	nopw   %cs:0x0(%rax,%rax,1)
  100414:	00 00 00 
  100417:	66 2e 0f 1f 84 00 00 	nopw   %cs:0x0(%rax,%rax,1)
  10041e:	00 00 00 
  100421:	66 2e 0f 1f 84 00 00 	nopw   %cs:0x0(%rax,%rax,1)
  100428:	00 00 00 
  10042b:	66 2e 0f 1f 84 00 00 	nopw   %cs:0x0(%rax,%rax,1)
  100432:	00 00 00 
  100435:	66 2e 0f 1f 84 00 00 	nopw   %cs:0x0(%rax,%rax,1)
  10043c:	00 00 00 
  10043f:	66 2e 0f 1f 84 00 00 	nopw   %cs:0x0(%rax,%rax,1)
  100446:	00 00 00 
  100449:	66 2e 0f 1f 84 00 00 	nopw   %cs:0x0(%rax,%rax,1)
  100450:	00 00 00 
  100453:	66 2e 0f 1f 84 00 00 	nopw   %cs:0x0(%rax,%rax,1)
  10045a:	00 00 00 
  10045d:	66 2e 0f 1f 84 00 00 	nopw   %cs:0x0(%rax,%rax,1)
  100464:	00 00 00 
  100467:	66 2e 0f 1f 84 00 00 	nopw   %cs:0x0(%rax,%rax,1)
  10046e:	00 00 00 
  100471:	66 2e 0f 1f 84 00 00 	nopw   %cs:0x0(%rax,%rax,1)
  100478:	00 00 00 
  10047b:	66 2e 0f 1f 84 00 00 	nopw   %cs:0x0(%rax,%rax,1)
  100482:	00 00 00 
  100485:	66 2e 0f 1f 84 00 00 	nopw   %cs:0x0(%rax,%rax,1)
  10048c:	00 00 00 
  10048f:	66 2e 0f 1f 84 00 00 	nopw   %cs:0x0(%rax,%rax,1)
  100496:	00 00 00 
  100499:	66 2e 0f 1f 84 00 00 	nopw   %cs:0x0(%rax,%rax,1)
  1004a0:	00 00 00 
  1004a3:	66 2e 0f 1f 84 00 00 	nopw   %cs:0x0(%rax,%rax,1)
  1004aa:	00 00 00 
  1004ad:	66 2e 0f 1f 84 00 00 	nopw   %cs:0x0(%rax,%rax,1)
  1004b4:	00 00 00 
  1004b7:	66 2e 0f 1f 84 00 00 	nopw   %cs:0x0(%rax,%rax,1)
  1004be:	00 00 00 
  1004c1:	66 2e 0f 1f 84 00 00 	nopw   %cs:0x0(%rax,%rax,1)
  1004c8:	00 00 00 
  1004cb:	66 2e 0f 1f 84 00 00 	nopw   %cs:0x0(%rax,%rax,1)
  1004d2:	00 00 00 
  1004d5:	66 2e 0f 1f 84 00 00 	nopw   %cs:0x0(%rax,%rax,1)
  1004dc:	00 00 00 
  1004df:	66 2e 0f 1f 84 00 00 	nopw   %cs:0x0(%rax,%rax,1)
  1004e6:	00 00 00 
  1004e9:	66 2e 0f 1f 84 00 00 	nopw   %cs:0x0(%rax,%rax,1)
  1004f0:	00 00 00 
  1004f3:	66 2e 0f 1f 84 00 00 	nopw   %cs:0x0(%rax,%rax,1)
  1004fa:	00 00 00 
  1004fd:	66 2e 0f 1f 84 00 00 	nopw   %cs:0x0(%rax,%rax,1)
  100504:	00 00 00 
  100507:	66 2e 0f 1f 84 00 00 	nopw   %cs:0x0(%rax,%rax,1)
  10050e:	00 00 00 
  100511:	66 2e 0f 1f 84 00 00 	nopw   %cs:0x0(%rax,%rax,1)
  100518:	00 00 00 
  10051b:	66 2e 0f 1f 84 00 00 	nopw   %cs:0x0(%rax,%rax,1)
  100522:	00 00 00 
  100525:	66 2e 0f 1f 84 00 00 	nopw   %cs:0x0(%rax,%rax,1)
  10052c:	00 00 00 
  10052f:	66 2e 0f 1f 84 00 00 	nopw   %cs:0x0(%rax,%rax,1)
  100536:	00 00 00 
  100539:	66 2e 0f 1f 84 00 00 	nopw   %cs:0x0(%rax,%rax,1)
  100540:	00 00 00 
  100543:	66 2e 0f 1f 84 00 00 	nopw   %cs:0x0(%rax,%rax,1)
  10054a:	00 00 00 
  10054d:	66 2e 0f 1f 84 00 00 	nopw   %cs:0x0(%rax,%rax,1)
  100554:	00 00 00 
  100557:	66 2e 0f 1f 84 00 00 	nopw   %cs:0x0(%rax,%rax,1)
  10055e:	00 00 00 
  100561:	66 2e 0f 1f 84 00 00 	nopw   %cs:0x0(%rax,%rax,1)
  100568:	00 00 00 
  10056b:	66 2e 0f 1f 84 00 00 	nopw   %cs:0x0(%rax,%rax,1)
  100572:	00 00 00 
  100575:	66 2e 0f 1f 84 00 00 	nopw   %cs:0x0(%rax,%rax,1)
  10057c:	00 00 00 
  10057f:	66 2e 0f 1f 84 00 00 	nopw   %cs:0x0(%rax,%rax,1)
  100586:	00 00 00 
  100589:	66 2e 0f 1f 84 00 00 	nopw   %cs:0x0(%rax,%rax,1)
  100590:	00 00 00 
  100593:	66 2e 0f 1f 84 00 00 	nopw   %cs:0x0(%rax,%rax,1)
  10059a:	00 00 00 
  10059d:	66 2e 0f 1f 84 00 00 	nopw   %cs:0x0(%rax,%rax,1)
  1005a4:	00 00 00 
  1005a7:	66 2e 0f 1f 84 00 00 	nopw   %cs:0x0(%rax,%rax,1)
  1005ae:	00 00 00 
  1005b1:	66 2e 0f 1f 84 00 00 	nopw   %cs:0x0(%rax,%rax,1)
  1005b8:	00 00 00 
  1005bb:	66 2e 0f 1f 84 00 00 	nopw   %cs:0x0(%rax,%rax,1)
  1005c2:	00 00 00 
  1005c5:	66 2e 0f 1f 84 00 00 	nopw   %cs:0x0(%rax,%rax,1)
  1005cc:	00 00 00 
  1005cf:	66 2e 0f 1f 84 00 00 	nopw   %cs:0x0(%rax,%rax,1)
  1005d6:	00 00 00 
  1005d9:	66 2e 0f 1f 84 00 00 	nopw   %cs:0x0(%rax,%rax,1)
  1005e0:	00 00 00 
  1005e3:	66 2e 0f 1f 84 00 00 	nopw   %cs:0x0(%rax,%rax,1)
  1005ea:	00 00 00 
  1005ed:	66 2e 0f 1f 84 00 00 	nopw   %cs:0x0(%rax,%rax,1)
  1005f4:	00 00 00 
  1005f7:	66 2e 0f 1f 84 00 00 	nopw   %cs:0x0(%rax,%rax,1)
  1005fe:	00 00 00 
  100601:	66 2e 0f 1f 84 00 00 	nopw   %cs:0x0(%rax,%rax,1)
  100608:	00 00 00 
  10060b:	66 2e 0f 1f 84 00 00 	nopw   %cs:0x0(%rax,%rax,1)
  100612:	00 00 00 
  100615:	66 2e 0f 1f 84 00 00 	nopw   %cs:0x0(%rax,%rax,1)
  10061c:	00 00 00 
  10061f:	66 2e 0f 1f 84 00 00 	nopw   %cs:0x0(%rax,%rax,1)
  100626:	00 00 00 
  100629:	66 2e 0f 1f 84 00 00 	nopw   %cs:0x0(%rax,%rax,1)
  100630:	00 00 00 
  100633:	66 2e 0f 1f 84 00 00 	nopw   %cs:0x0(%rax,%rax,1)
  10063a:	00 00 00 
  10063d:	66 2e 0f 1f 84 00 00 	nopw   %cs:0x0(%rax,%rax,1)
  100644:	00 00 00 
  100647:	66 2e 0f 1f 84 00 00 	nopw   %cs:0x0(%rax,%rax,1)
  10064e:	00 00 00 
  100651:	66 2e 0f 1f 84 00 00 	nopw   %cs:0x0(%rax,%rax,1)
  100658:	00 00 00 
  10065b:	66 2e 0f 1f 84 00 00 	nopw   %cs:0x0(%rax,%rax,1)
  100662:	00 00 00 
  100665:	66 2e 0f 1f 84 00 00 	nopw   %cs:0x0(%rax,%rax,1)
  10066c:	00 00 00 
  10066f:	66 2e 0f 1f 84 00 00 	nopw   %cs:0x0(%rax,%rax,1)
  100676:	00 00 00 
  100679:	66 2e 0f 1f 84 00 00 	nopw   %cs:0x0(%rax,%rax,1)
  100680:	00 00 00 
  100683:	66 2e 0f 1f 84 00 00 	nopw   %cs:0x0(%rax,%rax,1)
  10068a:	00 00 00 
  10068d:	66 2e 0f 1f 84 00 00 	nopw   %cs:0x0(%rax,%rax,1)
  100694:	00 00 00 
  100697:	66 2e 0f 1f 84 00 00 	nopw   %cs:0x0(%rax,%rax,1)
  10069e:	00 00 00 
  1006a1:	66 2e 0f 1f 84 00 00 	nopw   %cs:0x0(%rax,%rax,1)
  1006a8:	00 00 00 
  1006ab:	66 2e 0f 1f 84 00 00 	nopw   %cs:0x0(%rax,%rax,1)
  1006b2:	00 00 00 
  1006b5:	66 2e 0f 1f 84 00 00 	nopw   %cs:0x0(%rax,%rax,1)
  1006bc:	00 00 00 
  1006bf:	66 2e 0f 1f 84 00 00 	nopw   %cs:0x0(%rax,%rax,1)
  1006c6:	00 00 00 
  1006c9:	66 2e 0f 1f 84 00 00 	nopw   %cs:0x0(%rax,%rax,1)
  1006d0:	00 00 00 
  1006d3:	66 2e 0f 1f 84 00 00 	nopw   %cs:0x0(%rax,%rax,1)
  1006da:	00 00 00 
  1006dd:	66 2e 0f 1f 84 00 00 	nopw   %cs:0x0(%rax,%rax,1)
  1006e4:	00 00 00 
  1006e7:	66 2e 0f 1f 84 00 00 	nopw   %cs:0x0(%rax,%rax,1)
  1006ee:	00 00 00 
  1006f1:	66 2e 0f 1f 84 00 00 	nopw   %cs:0x0(%rax,%rax,1)
  1006f8:	00 00 00 
  1006fb:	66 2e 0f 1f 84 00 00 	nopw   %cs:0x0(%rax,%rax,1)
  100702:	00 00 00 
  100705:	66 2e 0f 1f 84 00 00 	nopw   %cs:0x0(%rax,%rax,1)
  10070c:	00 00 00 
  10070f:	66 2e 0f 1f 84 00 00 	nopw   %cs:0x0(%rax,%rax,1)
  100716:	00 00 00 
  100719:	66 2e 0f 1f 84 00 00 	nopw   %cs:0x0(%rax,%rax,1)
  100720:	00 00 00 
  100723:	66 2e 0f 1f 84 00 00 	nopw   %cs:0x0(%rax,%rax,1)
  10072a:	00 00 00 
  10072d:	66 2e 0f 1f 84 00 00 	nopw   %cs:0x0(%rax,%rax,1)
  100734:	00 00 00 
  100737:	66 2e 0f 1f 84 00 00 	nopw   %cs:0x0(%rax,%rax,1)
  10073e:	00 00 00 
  100741:	66 2e 0f 1f 84 00 00 	nopw   %cs:0x0(%rax,%rax,1)
  100748:	00 00 00 
  10074b:	66 2e 0f 1f 84 00 00 	nopw   %cs:0x0(%rax,%rax,1)
  100752:	00 00 00 
  100755:	66 2e 0f 1f 84 00 00 	nopw   %cs:0x0(%rax,%rax,1)
  10075c:	00 00 00 
  10075f:	66 2e 0f 1f 84 00 00 	nopw   %cs:0x0(%rax,%rax,1)
  100766:	00 00 00 
  100769:	66 2e 0f 1f 84 00 00 	nopw   %cs:0x0(%rax,%rax,1)
  100770:	00 00 00 
  100773:	66 2e 0f 1f 84 00 00 	nopw   %cs:0x0(%rax,%rax,1)
  10077a:	00 00 00 
  10077d:	66 2e 0f 1f 84 00 00 	nopw   %cs:0x0(%rax,%rax,1)
  100784:	00 00 00 
  100787:	66 2e 0f 1f 84 00 00 	nopw   %cs:0x0(%rax,%rax,1)
  10078e:	00 00 00 
  100791:	66 2e 0f 1f 84 00 00 	nopw   %cs:0x0(%rax,%rax,1)
  100798:	00 00 00 
  10079b:	66 2e 0f 1f 84 00 00 	nopw   %cs:0x0(%rax,%rax,1)
  1007a2:	00 00 00 
  1007a5:	66 2e 0f 1f 84 00 00 	nopw   %cs:0x0(%rax,%rax,1)
  1007ac:	00 00 00 
  1007af:	66 2e 0f 1f 84 00 00 	nopw   %cs:0x0(%rax,%rax,1)
  1007b6:	00 00 00 
  1007b9:	66 2e 0f 1f 84 00 00 	nopw   %cs:0x0(%rax,%rax,1)
  1007c0:	00 00 00 
  1007c3:	66 2e 0f 1f 84 00 00 	nopw   %cs:0x0(%rax,%rax,1)
  1007ca:	00 00 00 
  1007cd:	66 2e 0f 1f 84 00 00 	nopw   %cs:0x0(%rax,%rax,1)
  1007d4:	00 00 00 
  1007d7:	66 2e 0f 1f 84 00 00 	nopw   %cs:0x0(%rax,%rax,1)
  1007de:	00 00 00 
  1007e1:	66 2e 0f 1f 84 00 00 	nopw   %cs:0x0(%rax,%rax,1)
  1007e8:	00 00 00 
  1007eb:	66 2e 0f 1f 84 00 00 	nopw   %cs:0x0(%rax,%rax,1)
  1007f2:	00 00 00 
  1007f5:	66 2e 0f 1f 84 00 00 	nopw   %cs:0x0(%rax,%rax,1)
  1007fc:	00 00 00 
  1007ff:	66 2e 0f 1f 84 00 00 	nopw   %cs:0x0(%rax,%rax,1)
  100806:	00 00 00 
  100809:	66 2e 0f 1f 84 00 00 	nopw   %cs:0x0(%rax,%rax,1)
  100810:	00 00 00 
  100813:	66 2e 0f 1f 84 00 00 	nopw   %cs:0x0(%rax,%rax,1)
  10081a:	00 00 00 
  10081d:	66 2e 0f 1f 84 00 00 	nopw   %cs:0x0(%rax,%rax,1)
  100824:	00 00 00 
  100827:	66 2e 0f 1f 84 00 00 	nopw   %cs:0x0(%rax,%rax,1)
  10082e:	00 00 00 
  100831:	66 2e 0f 1f 84 00 00 	nopw   %cs:0x0(%rax,%rax,1)
  100838:	00 00 00 
  10083b:	66 2e 0f 1f 84 00 00 	nopw   %cs:0x0(%rax,%rax,1)
  100842:	00 00 00 
  100845:	66 2e 0f 1f 84 00 00 	nopw   %cs:0x0(%rax,%rax,1)
  10084c:	00 00 00 
  10084f:	66 2e 0f 1f 84 00 00 	nopw   %cs:0x0(%rax,%rax,1)
  100856:	00 00 00 
  100859:	66 2e 0f 1f 84 00 00 	nopw   %cs:0x0(%rax,%rax,1)
  100860:	00 00 00 
  100863:	66 2e 0f 1f 84 00 00 	nopw   %cs:0x0(%rax,%rax,1)
  10086a:	00 00 00 
  10086d:	66 2e 0f 1f 84 00 00 	nopw   %cs:0x0(%rax,%rax,1)
  100874:	00 00 00 
  100877:	66 2e 0f 1f 84 00 00 	nopw   %cs:0x0(%rax,%rax,1)
  10087e:	00 00 00 
  100881:	66 2e 0f 1f 84 00 00 	nopw   %cs:0x0(%rax,%rax,1)
  100888:	00 00 00 
  10088b:	66 2e 0f 1f 84 00 00 	nopw   %cs:0x0(%rax,%rax,1)
  100892:	00 00 00 
  100895:	66 2e 0f 1f 84 00 00 	nopw   %cs:0x0(%rax,%rax,1)
  10089c:	00 00 00 
  10089f:	66 2e 0f 1f 84 00 00 	nopw   %cs:0x0(%rax,%rax,1)
  1008a6:	00 00 00 
  1008a9:	66 2e 0f 1f 84 00 00 	nopw   %cs:0x0(%rax,%rax,1)
  1008b0:	00 00 00 
  1008b3:	66 2e 0f 1f 84 00 00 	nopw   %cs:0x0(%rax,%rax,1)
  1008ba:	00 00 00 
  1008bd:	66 2e 0f 1f 84 00 00 	nopw   %cs:0x0(%rax,%rax,1)
  1008c4:	00 00 00 
  1008c7:	66 2e 0f 1f 84 00 00 	nopw   %cs:0x0(%rax,%rax,1)
  1008ce:	00 00 00 
  1008d1:	66 2e 0f 1f 84 00 00 	nopw   %cs:0x0(%rax,%rax,1)
  1008d8:	00 00 00 
  1008db:	66 2e 0f 1f 84 00 00 	nopw   %cs:0x0(%rax,%rax,1)
  1008e2:	00 00 00 
  1008e5:	66 2e 0f 1f 84 00 00 	nopw   %cs:0x0(%rax,%rax,1)
  1008ec:	00 00 00 
  1008ef:	66 2e 0f 1f 84 00 00 	nopw   %cs:0x0(%rax,%rax,1)
  1008f6:	00 00 00 
  1008f9:	66 2e 0f 1f 84 00 00 	nopw   %cs:0x0(%rax,%rax,1)
  100900:	00 00 00 
  100903:	66 2e 0f 1f 84 00 00 	nopw   %cs:0x0(%rax,%rax,1)
  10090a:	00 00 00 
  10090d:	66 2e 0f 1f 84 00 00 	nopw   %cs:0x0(%rax,%rax,1)
  100914:	00 00 00 
  100917:	66 2e 0f 1f 84 00 00 	nopw   %cs:0x0(%rax,%rax,1)
  10091e:	00 00 00 
  100921:	66 2e 0f 1f 84 00 00 	nopw   %cs:0x0(%rax,%rax,1)
  100928:	00 00 00 
  10092b:	66 2e 0f 1f 84 00 00 	nopw   %cs:0x0(%rax,%rax,1)
  100932:	00 00 00 
  100935:	66 2e 0f 1f 84 00 00 	nopw   %cs:0x0(%rax,%rax,1)
  10093c:	00 00 00 
  10093f:	66 2e 0f 1f 84 00 00 	nopw   %cs:0x0(%rax,%rax,1)
  100946:	00 00 00 
  100949:	66 2e 0f 1f 84 00 00 	nopw   %cs:0x0(%rax,%rax,1)
  100950:	00 00 00 
  100953:	66 2e 0f 1f 84 00 00 	nopw   %cs:0x0(%rax,%rax,1)
  10095a:	00 00 00 
  10095d:	66 2e 0f 1f 84 00 00 	nopw   %cs:0x0(%rax,%rax,1)
  100964:	00 00 00 
  100967:	66 2e 0f 1f 84 00 00 	nopw   %cs:0x0(%rax,%rax,1)
  10096e:	00 00 00 
  100971:	66 2e 0f 1f 84 00 00 	nopw   %cs:0x0(%rax,%rax,1)
  100978:	00 00 00 
  10097b:	66 2e 0f 1f 84 00 00 	nopw   %cs:0x0(%rax,%rax,1)
  100982:	00 00 00 
  100985:	66 2e 0f 1f 84 00 00 	nopw   %cs:0x0(%rax,%rax,1)
  10098c:	00 00 00 
  10098f:	66 2e 0f 1f 84 00 00 	nopw   %cs:0x0(%rax,%rax,1)
  100996:	00 00 00 
  100999:	66 2e 0f 1f 84 00 00 	nopw   %cs:0x0(%rax,%rax,1)
  1009a0:	00 00 00 
  1009a3:	66 2e 0f 1f 84 00 00 	nopw   %cs:0x0(%rax,%rax,1)
  1009aa:	00 00 00 
  1009ad:	66 2e 0f 1f 84 00 00 	nopw   %cs:0x0(%rax,%rax,1)
  1009b4:	00 00 00 
  1009b7:	66 2e 0f 1f 84 00 00 	nopw   %cs:0x0(%rax,%rax,1)
  1009be:	00 00 00 
  1009c1:	66 2e 0f 1f 84 00 00 	nopw   %cs:0x0(%rax,%rax,1)
  1009c8:	00 00 00 
  1009cb:	66 2e 0f 1f 84 00 00 	nopw   %cs:0x0(%rax,%rax,1)
  1009d2:	00 00 00 
  1009d5:	66 2e 0f 1f 84 00 00 	nopw   %cs:0x0(%rax,%rax,1)
  1009dc:	00 00 00 
  1009df:	66 2e 0f 1f 84 00 00 	nopw   %cs:0x0(%rax,%rax,1)
  1009e6:	00 00 00 
  1009e9:	66 2e 0f 1f 84 00 00 	nopw   %cs:0x0(%rax,%rax,1)
  1009f0:	00 00 00 
  1009f3:	66 2e 0f 1f 84 00 00 	nopw   %cs:0x0(%rax,%rax,1)
  1009fa:	00 00 00 
  1009fd:	66 2e 0f 1f 84 00 00 	nopw   %cs:0x0(%rax,%rax,1)
  100a04:	00 00 00 
  100a07:	66 2e 0f 1f 84 00 00 	nopw   %cs:0x0(%rax,%rax,1)
  100a0e:	00 00 00 
  100a11:	66 2e 0f 1f 84 00 00 	nopw   %cs:0x0(%rax,%rax,1)
  100a18:	00 00 00 
  100a1b:	66 2e 0f 1f 84 00 00 	nopw   %cs:0x0(%rax,%rax,1)
  100a22:	00 00 00 
  100a25:	66 2e 0f 1f 84 00 00 	nopw   %cs:0x0(%rax,%rax,1)
  100a2c:	00 00 00 
  100a2f:	66 2e 0f 1f 84 00 00 	nopw   %cs:0x0(%rax,%rax,1)
  100a36:	00 00 00 
  100a39:	66 2e 0f 1f 84 00 00 	nopw   %cs:0x0(%rax,%rax,1)
  100a40:	00 00 00 
  100a43:	66 2e 0f 1f 84 00 00 	nopw   %cs:0x0(%rax,%rax,1)
  100a4a:	00 00 00 
  100a4d:	66 2e 0f 1f 84 00 00 	nopw   %cs:0x0(%rax,%rax,1)
  100a54:	00 00 00 
  100a57:	66 2e 0f 1f 84 00 00 	nopw   %cs:0x0(%rax,%rax,1)
  100a5e:	00 00 00 
  100a61:	66 2e 0f 1f 84 00 00 	nopw   %cs:0x0(%rax,%rax,1)
  100a68:	00 00 00 
  100a6b:	66 2e 0f 1f 84 00 00 	nopw   %cs:0x0(%rax,%rax,1)
  100a72:	00 00 00 
  100a75:	66 2e 0f 1f 84 00 00 	nopw   %cs:0x0(%rax,%rax,1)
  100a7c:	00 00 00 
  100a7f:	66 2e 0f 1f 84 00 00 	nopw   %cs:0x0(%rax,%rax,1)
  100a86:	00 00 00 
  100a89:	66 2e 0f 1f 84 00 00 	nopw   %cs:0x0(%rax,%rax,1)
  100a90:	00 00 00 
  100a93:	66 2e 0f 1f 84 00 00 	nopw   %cs:0x0(%rax,%rax,1)
  100a9a:	00 00 00 
  100a9d:	66 2e 0f 1f 84 00 00 	nopw   %cs:0x0(%rax,%rax,1)
  100aa4:	00 00 00 
  100aa7:	66 2e 0f 1f 84 00 00 	nopw   %cs:0x0(%rax,%rax,1)
  100aae:	00 00 00 
  100ab1:	66 2e 0f 1f 84 00 00 	nopw   %cs:0x0(%rax,%rax,1)
  100ab8:	00 00 00 
  100abb:	66 2e 0f 1f 84 00 00 	nopw   %cs:0x0(%rax,%rax,1)
  100ac2:	00 00 00 
  100ac5:	66 2e 0f 1f 84 00 00 	nopw   %cs:0x0(%rax,%rax,1)
  100acc:	00 00 00 
  100acf:	66 2e 0f 1f 84 00 00 	nopw   %cs:0x0(%rax,%rax,1)
  100ad6:	00 00 00 
  100ad9:	66 2e 0f 1f 84 00 00 	nopw   %cs:0x0(%rax,%rax,1)
  100ae0:	00 00 00 
  100ae3:	66 2e 0f 1f 84 00 00 	nopw   %cs:0x0(%rax,%rax,1)
  100aea:	00 00 00 
  100aed:	66 2e 0f 1f 84 00 00 	nopw   %cs:0x0(%rax,%rax,1)
  100af4:	00 00 00 
  100af7:	66 2e 0f 1f 84 00 00 	nopw   %cs:0x0(%rax,%rax,1)
  100afe:	00 00 00 
  100b01:	66 2e 0f 1f 84 00 00 	nopw   %cs:0x0(%rax,%rax,1)
  100b08:	00 00 00 
  100b0b:	66 2e 0f 1f 84 00 00 	nopw   %cs:0x0(%rax,%rax,1)
  100b12:	00 00 00 
  100b15:	66 2e 0f 1f 84 00 00 	nopw   %cs:0x0(%rax,%rax,1)
  100b1c:	00 00 00 
  100b1f:	66 2e 0f 1f 84 00 00 	nopw   %cs:0x0(%rax,%rax,1)
  100b26:	00 00 00 
  100b29:	66 2e 0f 1f 84 00 00 	nopw   %cs:0x0(%rax,%rax,1)
  100b30:	00 00 00 
  100b33:	66 2e 0f 1f 84 00 00 	nopw   %cs:0x0(%rax,%rax,1)
  100b3a:	00 00 00 
  100b3d:	66 2e 0f 1f 84 00 00 	nopw   %cs:0x0(%rax,%rax,1)
  100b44:	00 00 00 
  100b47:	66 2e 0f 1f 84 00 00 	nopw   %cs:0x0(%rax,%rax,1)
  100b4e:	00 00 00 
  100b51:	66 2e 0f 1f 84 00 00 	nopw   %cs:0x0(%rax,%rax,1)
  100b58:	00 00 00 
  100b5b:	66 2e 0f 1f 84 00 00 	nopw   %cs:0x0(%rax,%rax,1)
  100b62:	00 00 00 
  100b65:	66 2e 0f 1f 84 00 00 	nopw   %cs:0x0(%rax,%rax,1)
  100b6c:	00 00 00 
  100b6f:	66 2e 0f 1f 84 00 00 	nopw   %cs:0x0(%rax,%rax,1)
  100b76:	00 00 00 
  100b79:	66 2e 0f 1f 84 00 00 	nopw   %cs:0x0(%rax,%rax,1)
  100b80:	00 00 00 
  100b83:	66 2e 0f 1f 84 00 00 	nopw   %cs:0x0(%rax,%rax,1)
  100b8a:	00 00 00 
  100b8d:	66 2e 0f 1f 84 00 00 	nopw   %cs:0x0(%rax,%rax,1)
  100b94:	00 00 00 
  100b97:	66 2e 0f 1f 84 00 00 	nopw   %cs:0x0(%rax,%rax,1)
  100b9e:	00 00 00 
  100ba1:	66 2e 0f 1f 84 00 00 	nopw   %cs:0x0(%rax,%rax,1)
  100ba8:	00 00 00 
  100bab:	66 2e 0f 1f 84 00 00 	nopw   %cs:0x0(%rax,%rax,1)
  100bb2:	00 00 00 
  100bb5:	66 2e 0f 1f 84 00 00 	nopw   %cs:0x0(%rax,%rax,1)
  100bbc:	00 00 00 
  100bbf:	66 2e 0f 1f 84 00 00 	nopw   %cs:0x0(%rax,%rax,1)
  100bc6:	00 00 00 
  100bc9:	66 2e 0f 1f 84 00 00 	nopw   %cs:0x0(%rax,%rax,1)
  100bd0:	00 00 00 
  100bd3:	66 2e 0f 1f 84 00 00 	nopw   %cs:0x0(%rax,%rax,1)
  100bda:	00 00 00 
  100bdd:	66 2e 0f 1f 84 00 00 	nopw   %cs:0x0(%rax,%rax,1)
  100be4:	00 00 00 
  100be7:	66 2e 0f 1f 84 00 00 	nopw   %cs:0x0(%rax,%rax,1)
  100bee:	00 00 00 
  100bf1:	66 2e 0f 1f 84 00 00 	nopw   %cs:0x0(%rax,%rax,1)
  100bf8:	00 00 00 
  100bfb:	66 2e 0f 1f 84 00 00 	nopw   %cs:0x0(%rax,%rax,1)
  100c02:	00 00 00 
  100c05:	66 2e 0f 1f 84 00 00 	nopw   %cs:0x0(%rax,%rax,1)
  100c0c:	00 00 00 
  100c0f:	66 2e 0f 1f 84 00 00 	nopw   %cs:0x0(%rax,%rax,1)
  100c16:	00 00 00 
  100c19:	66 2e 0f 1f 84 00 00 	nopw   %cs:0x0(%rax,%rax,1)
  100c20:	00 00 00 
  100c23:	66 2e 0f 1f 84 00 00 	nopw   %cs:0x0(%rax,%rax,1)
  100c2a:	00 00 00 
  100c2d:	66 2e 0f 1f 84 00 00 	nopw   %cs:0x0(%rax,%rax,1)
  100c34:	00 00 00 
  100c37:	66 2e 0f 1f 84 00 00 	nopw   %cs:0x0(%rax,%rax,1)
  100c3e:	00 00 00 
  100c41:	66 2e 0f 1f 84 00 00 	nopw   %cs:0x0(%rax,%rax,1)
  100c48:	00 00 00 
  100c4b:	66 2e 0f 1f 84 00 00 	nopw   %cs:0x0(%rax,%rax,1)
  100c52:	00 00 00 
  100c55:	66 2e 0f 1f 84 00 00 	nopw   %cs:0x0(%rax,%rax,1)
  100c5c:	00 00 00 
  100c5f:	66 2e 0f 1f 84 00 00 	nopw   %cs:0x0(%rax,%rax,1)
  100c66:	00 00 00 
  100c69:	66 2e 0f 1f 84 00 00 	nopw   %cs:0x0(%rax,%rax,1)
  100c70:	00 00 00 
  100c73:	66 2e 0f 1f 84 00 00 	nopw   %cs:0x0(%rax,%rax,1)
  100c7a:	00 00 00 
  100c7d:	66 2e 0f 1f 84 00 00 	nopw   %cs:0x0(%rax,%rax,1)
  100c84:	00 00 00 
  100c87:	66 2e 0f 1f 84 00 00 	nopw   %cs:0x0(%rax,%rax,1)
  100c8e:	00 00 00 
  100c91:	66 2e 0f 1f 84 00 00 	nopw   %cs:0x0(%rax,%rax,1)
  100c98:	00 00 00 
  100c9b:	66 2e 0f 1f 84 00 00 	nopw   %cs:0x0(%rax,%rax,1)
  100ca2:	00 00 00 
  100ca5:	66 2e 0f 1f 84 00 00 	nopw   %cs:0x0(%rax,%rax,1)
  100cac:	00 00 00 
  100caf:	66 2e 0f 1f 84 00 00 	nopw   %cs:0x0(%rax,%rax,1)
  100cb6:	00 00 00 
  100cb9:	66 2e 0f 1f 84 00 00 	nopw   %cs:0x0(%rax,%rax,1)
  100cc0:	00 00 00 
  100cc3:	66 2e 0f 1f 84 00 00 	nopw   %cs:0x0(%rax,%rax,1)
  100cca:	00 00 00 
  100ccd:	66 2e 0f 1f 84 00 00 	nopw   %cs:0x0(%rax,%rax,1)
  100cd4:	00 00 00 
  100cd7:	66 2e 0f 1f 84 00 00 	nopw   %cs:0x0(%rax,%rax,1)
  100cde:	00 00 00 
  100ce1:	66 2e 0f 1f 84 00 00 	nopw   %cs:0x0(%rax,%rax,1)
  100ce8:	00 00 00 
  100ceb:	66 2e 0f 1f 84 00 00 	nopw   %cs:0x0(%rax,%rax,1)
  100cf2:	00 00 00 
  100cf5:	66 2e 0f 1f 84 00 00 	nopw   %cs:0x0(%rax,%rax,1)
  100cfc:	00 00 00 
  100cff:	66 2e 0f 1f 84 00 00 	nopw   %cs:0x0(%rax,%rax,1)
  100d06:	00 00 00 
  100d09:	66 2e 0f 1f 84 00 00 	nopw   %cs:0x0(%rax,%rax,1)
  100d10:	00 00 00 
  100d13:	66 2e 0f 1f 84 00 00 	nopw   %cs:0x0(%rax,%rax,1)
  100d1a:	00 00 00 
  100d1d:	66 2e 0f 1f 84 00 00 	nopw   %cs:0x0(%rax,%rax,1)
  100d24:	00 00 00 
  100d27:	66 2e 0f 1f 84 00 00 	nopw   %cs:0x0(%rax,%rax,1)
  100d2e:	00 00 00 
  100d31:	66 2e 0f 1f 84 00 00 	nopw   %cs:0x0(%rax,%rax,1)
  100d38:	00 00 00 
  100d3b:	66 2e 0f 1f 84 00 00 	nopw   %cs:0x0(%rax,%rax,1)
  100d42:	00 00 00 
  100d45:	66 2e 0f 1f 84 00 00 	nopw   %cs:0x0(%rax,%rax,1)
  100d4c:	00 00 00 
  100d4f:	66 2e 0f 1f 84 00 00 	nopw   %cs:0x0(%rax,%rax,1)
  100d56:	00 00 00 
  100d59:	66 2e 0f 1f 84 00 00 	nopw   %cs:0x0(%rax,%rax,1)
  100d60:	00 00 00 
  100d63:	66 2e 0f 1f 84 00 00 	nopw   %cs:0x0(%rax,%rax,1)
  100d6a:	00 00 00 
  100d6d:	66 2e 0f 1f 84 00 00 	nopw   %cs:0x0(%rax,%rax,1)
  100d74:	00 00 00 
  100d77:	66 2e 0f 1f 84 00 00 	nopw   %cs:0x0(%rax,%rax,1)
  100d7e:	00 00 00 
  100d81:	66 2e 0f 1f 84 00 00 	nopw   %cs:0x0(%rax,%rax,1)
  100d88:	00 00 00 
  100d8b:	66 2e 0f 1f 84 00 00 	nopw   %cs:0x0(%rax,%rax,1)
  100d92:	00 00 00 
  100d95:	66 2e 0f 1f 84 00 00 	nopw   %cs:0x0(%rax,%rax,1)
  100d9c:	00 00 00 
  100d9f:	66 2e 0f 1f 84 00 00 	nopw   %cs:0x0(%rax,%rax,1)
  100da6:	00 00 00 
  100da9:	66 2e 0f 1f 84 00 00 	nopw   %cs:0x0(%rax,%rax,1)
  100db0:	00 00 00 
  100db3:	66 2e 0f 1f 84 00 00 	nopw   %cs:0x0(%rax,%rax,1)
  100dba:	00 00 00 
  100dbd:	66 2e 0f 1f 84 00 00 	nopw   %cs:0x0(%rax,%rax,1)
  100dc4:	00 00 00 
  100dc7:	66 2e 0f 1f 84 00 00 	nopw   %cs:0x0(%rax,%rax,1)
  100dce:	00 00 00 
  100dd1:	66 2e 0f 1f 84 00 00 	nopw   %cs:0x0(%rax,%rax,1)
  100dd8:	00 00 00 
  100ddb:	66 2e 0f 1f 84 00 00 	nopw   %cs:0x0(%rax,%rax,1)
  100de2:	00 00 00 
  100de5:	66 2e 0f 1f 84 00 00 	nopw   %cs:0x0(%rax,%rax,1)
  100dec:	00 00 00 
  100def:	66 2e 0f 1f 84 00 00 	nopw   %cs:0x0(%rax,%rax,1)
  100df6:	00 00 00 
  100df9:	66 2e 0f 1f 84 00 00 	nopw   %cs:0x0(%rax,%rax,1)
  100e00:	00 00 00 
  100e03:	66 2e 0f 1f 84 00 00 	nopw   %cs:0x0(%rax,%rax,1)
  100e0a:	00 00 00 
  100e0d:	66 2e 0f 1f 84 00 00 	nopw   %cs:0x0(%rax,%rax,1)
  100e14:	00 00 00 
  100e17:	66 2e 0f 1f 84 00 00 	nopw   %cs:0x0(%rax,%rax,1)
  100e1e:	00 00 00 
  100e21:	66 2e 0f 1f 84 00 00 	nopw   %cs:0x0(%rax,%rax,1)
  100e28:	00 00 00 
  100e2b:	66 2e 0f 1f 84 00 00 	nopw   %cs:0x0(%rax,%rax,1)
  100e32:	00 00 00 
  100e35:	66 2e 0f 1f 84 00 00 	nopw   %cs:0x0(%rax,%rax,1)
  100e3c:	00 00 00 
  100e3f:	66 2e 0f 1f 84 00 00 	nopw   %cs:0x0(%rax,%rax,1)
  100e46:	00 00 00 
  100e49:	66 2e 0f 1f 84 00 00 	nopw   %cs:0x0(%rax,%rax,1)
  100e50:	00 00 00 
  100e53:	66 2e 0f 1f 84 00 00 	nopw   %cs:0x0(%rax,%rax,1)
  100e5a:	00 00 00 
  100e5d:	66 2e 0f 1f 84 00 00 	nopw   %cs:0x0(%rax,%rax,1)
  100e64:	00 00 00 
  100e67:	66 2e 0f 1f 84 00 00 	nopw   %cs:0x0(%rax,%rax,1)
  100e6e:	00 00 00 
  100e71:	66 2e 0f 1f 84 00 00 	nopw   %cs:0x0(%rax,%rax,1)
  100e78:	00 00 00 
  100e7b:	66 2e 0f 1f 84 00 00 	nopw   %cs:0x0(%rax,%rax,1)
  100e82:	00 00 00 
  100e85:	66 2e 0f 1f 84 00 00 	nopw   %cs:0x0(%rax,%rax,1)
  100e8c:	00 00 00 
  100e8f:	66 2e 0f 1f 84 00 00 	nopw   %cs:0x0(%rax,%rax,1)
  100e96:	00 00 00 
  100e99:	66 2e 0f 1f 84 00 00 	nopw   %cs:0x0(%rax,%rax,1)
  100ea0:	00 00 00 
  100ea3:	66 2e 0f 1f 84 00 00 	nopw   %cs:0x0(%rax,%rax,1)
  100eaa:	00 00 00 
  100ead:	66 2e 0f 1f 84 00 00 	nopw   %cs:0x0(%rax,%rax,1)
  100eb4:	00 00 00 
  100eb7:	66 2e 0f 1f 84 00 00 	nopw   %cs:0x0(%rax,%rax,1)
  100ebe:	00 00 00 
  100ec1:	66 2e 0f 1f 84 00 00 	nopw   %cs:0x0(%rax,%rax,1)
  100ec8:	00 00 00 
  100ecb:	66 2e 0f 1f 84 00 00 	nopw   %cs:0x0(%rax,%rax,1)
  100ed2:	00 00 00 
  100ed5:	66 2e 0f 1f 84 00 00 	nopw   %cs:0x0(%rax,%rax,1)
  100edc:	00 00 00 
  100edf:	66 2e 0f 1f 84 00 00 	nopw   %cs:0x0(%rax,%rax,1)
  100ee6:	00 00 00 
  100ee9:	66 2e 0f 1f 84 00 00 	nopw   %cs:0x0(%rax,%rax,1)
  100ef0:	00 00 00 
  100ef3:	66 2e 0f 1f 84 00 00 	nopw   %cs:0x0(%rax,%rax,1)
  100efa:	00 00 00 
  100efd:	66 2e 0f 1f 84 00 00 	nopw   %cs:0x0(%rax,%rax,1)
  100f04:	00 00 00 
  100f07:	66 2e 0f 1f 84 00 00 	nopw   %cs:0x0(%rax,%rax,1)
  100f0e:	00 00 00 
  100f11:	66 2e 0f 1f 84 00 00 	nopw   %cs:0x0(%rax,%rax,1)
  100f18:	00 00 00 
  100f1b:	66 2e 0f 1f 84 00 00 	nopw   %cs:0x0(%rax,%rax,1)
  100f22:	00 00 00 
  100f25:	66 2e 0f 1f 84 00 00 	nopw   %cs:0x0(%rax,%rax,1)
  100f2c:	00 00 00 
  100f2f:	66 2e 0f 1f 84 00 00 	nopw   %cs:0x0(%rax,%rax,1)
  100f36:	00 00 00 
  100f39:	66 2e 0f 1f 84 00 00 	nopw   %cs:0x0(%rax,%rax,1)
  100f40:	00 00 00 
  100f43:	66 2e 0f 1f 84 00 00 	nopw   %cs:0x0(%rax,%rax,1)
  100f4a:	00 00 00 
  100f4d:	66 2e 0f 1f 84 00 00 	nopw   %cs:0x0(%rax,%rax,1)
  100f54:	00 00 00 
  100f57:	66 2e 0f 1f 84 00 00 	nopw   %cs:0x0(%rax,%rax,1)
  100f5e:	00 00 00 
  100f61:	66 2e 0f 1f 84 00 00 	nopw   %cs:0x0(%rax,%rax,1)
  100f68:	00 00 00 
  100f6b:	66 2e 0f 1f 84 00 00 	nopw   %cs:0x0(%rax,%rax,1)
  100f72:	00 00 00 
  100f75:	66 2e 0f 1f 84 00 00 	nopw   %cs:0x0(%rax,%rax,1)
  100f7c:	00 00 00 
  100f7f:	66 2e 0f 1f 84 00 00 	nopw   %cs:0x0(%rax,%rax,1)
  100f86:	00 00 00 
  100f89:	66 2e 0f 1f 84 00 00 	nopw   %cs:0x0(%rax,%rax,1)
  100f90:	00 00 00 
  100f93:	66 2e 0f 1f 84 00 00 	nopw   %cs:0x0(%rax,%rax,1)
  100f9a:	00 00 00 
  100f9d:	66 2e 0f 1f 84 00 00 	nopw   %cs:0x0(%rax,%rax,1)
  100fa4:	00 00 00 
  100fa7:	66 2e 0f 1f 84 00 00 	nopw   %cs:0x0(%rax,%rax,1)
  100fae:	00 00 00 
  100fb1:	66 2e 0f 1f 84 00 00 	nopw   %cs:0x0(%rax,%rax,1)
  100fb8:	00 00 00 
  100fbb:	66 2e 0f 1f 84 00 00 	nopw   %cs:0x0(%rax,%rax,1)
  100fc2:	00 00 00 
  100fc5:	66 2e 0f 1f 84 00 00 	nopw   %cs:0x0(%rax,%rax,1)
  100fcc:	00 00 00 
  100fcf:	66 2e 0f 1f 84 00 00 	nopw   %cs:0x0(%rax,%rax,1)
  100fd6:	00 00 00 
  100fd9:	66 2e 0f 1f 84 00 00 	nopw   %cs:0x0(%rax,%rax,1)
  100fe0:	00 00 00 
  100fe3:	66 2e 0f 1f 84 00 00 	nopw   %cs:0x0(%rax,%rax,1)
  100fea:	00 00 00 
  100fed:	66 2e 0f 1f 84 00 00 	nopw   %cs:0x0(%rax,%rax,1)
  100ff4:	00 00 00 
  100ff7:	66 0f 1f 84 00 00 00 	nopw   0x0(%rax,%rax,1)
  100ffe:	00 00 

0000000000101000 <gdt_64>:
	...
  101008:	ff                   	(bad)  
  101009:	ff 00                	incl   (%rax)
  10100b:	00 00                	add    %al,(%rax)
  10100d:	9a                   	(bad)  
  10100e:	af                   	scas   %es:(%rdi),%eax
  10100f:	00 ff                	add    %bh,%bh
  101011:	ff 00                	incl   (%rax)
  101013:	00 00                	add    %al,(%rax)
  101015:	92                   	xchg   %eax,%edx
  101016:	cf                   	iret   
	...

0000000000101018 <gdtdesc_64>:
  101018:	17                   	(bad)  
  101019:	00 00                	add    %al,(%rax)
  10101b:	10 10                	adc    %dl,(%rax)
	...

0000000000102000 <pml4phys>:
	...

0000000000103000 <pdpt1>:
	...

0000000000104000 <pdpt2>:
	...

0000000000105000 <pde1>:
	...

0000000000106000 <pde2>:
	...

0000000000107000 <multiboot_info>:
  107000:	00 00                	add    %al,(%rax)
	...

Disassembly of section .text:

0000008004200000 <_start+0x8003fffff4>:
  8004200000:	02 b0 ad 1b 00 00    	add    0x1bad(%rax),%dh
  8004200006:	00 00                	add    %al,(%rax)
  8004200008:	fe 4f 52             	decb   0x52(%rdi)
  800420000b:	e4                   	.byte 0xe4

000000800420000c <entry>:
entry:

/* .globl _back_from_head64 */
/* _back_from_head64: */

    movabs   $gdtdesc_64,%rax
  800420000c:	48 b8 38 b0 22 04 80 	movabs $0x800422b038,%rax
  8004200013:	00 00 00 
    lgdt     (%rax)
  8004200016:	0f 01 10             	lgdt   (%rax)
    movw    $DATA_SEL,%ax
  8004200019:	66 b8 10 00          	mov    $0x10,%ax
    movw    %ax,%ds
  800420001d:	8e d8                	mov    %eax,%ds
    movw    %ax,%ss
  800420001f:	8e d0                	mov    %eax,%ss
    movw    %ax,%fs
  8004200021:	8e e0                	mov    %eax,%fs
    movw    %ax,%gs
  8004200023:	8e e8                	mov    %eax,%gs
    movw    %ax,%es
  8004200025:	8e c0                	mov    %eax,%es
    pushq   $CODE_SEL
  8004200027:	6a 08                	pushq  $0x8
    movabs  $relocated,%rax
  8004200029:	48 b8 36 00 20 04 80 	movabs $0x8004200036,%rax
  8004200030:	00 00 00 
    pushq   %rax
  8004200033:	50                   	push   %rax
    lretq
  8004200034:	48 cb                	lretq  

0000008004200036 <relocated>:
relocated:

	# Clear the frame pointer register (RBP)
	# so that once we get into debugging C code,
	# stack backtraces will be terminated properly.
	movq	$0x0,%rbp			# nuke frame pointer
  8004200036:	48 c7 c5 00 00 00 00 	mov    $0x0,%rbp

	# Set the stack pointer
	movabs	$(bootstacktop),%rax
  800420003d:	48 b8 00 b0 22 04 80 	movabs $0x800422b000,%rax
  8004200044:	00 00 00 
	movq  %rax,%rsp
  8004200047:	48 89 c4             	mov    %rax,%rsp

	# now to C code
    movabs $i386_init, %rax
  800420004a:	48 b8 9a 00 20 04 80 	movabs $0x800420009a,%rax
  8004200051:	00 00 00 
	call *%rax
  8004200054:	ff d0                	callq  *%rax

0000008004200056 <spin>:

	# Should never get here, but in case we do, just spin.
spin:	jmp	spin
  8004200056:	eb fe                	jmp    8004200056 <spin>

0000008004200058 <xchg>:
	if (edxp)
		*edxp = edx;
}

static inline uint32_t
xchg(volatile uint32_t *addr,uint32_t newval){
  8004200058:	55                   	push   %rbp
  8004200059:	48 89 e5             	mov    %rsp,%rbp
  800420005c:	48 83 ec 20          	sub    $0x20,%rsp
  8004200060:	48 89 7d e8          	mov    %rdi,-0x18(%rbp)
  8004200064:	89 75 e4             	mov    %esi,-0x1c(%rbp)
	uint32_t result;
	__asm __volatile("lock; xchgl %0, %1":
  8004200067:	48 8b 55 e8          	mov    -0x18(%rbp),%rdx
  800420006b:	8b 45 e4             	mov    -0x1c(%rbp),%eax
  800420006e:	48 8b 4d e8          	mov    -0x18(%rbp),%rcx
  8004200072:	f0 87 02             	lock xchg %eax,(%rdx)
  8004200075:	89 45 fc             	mov    %eax,-0x4(%rbp)
			 "+m" (*addr), "=a" (result):
			 "1"(newval):
			 "cc");
	return result;
  8004200078:	8b 45 fc             	mov    -0x4(%rbp),%eax
}
  800420007b:	c9                   	leaveq 
  800420007c:	c3                   	retq   

000000800420007d <lock_kernel>:

extern struct spinlock kernel_lock;

static inline void
lock_kernel(void)
{
  800420007d:	55                   	push   %rbp
  800420007e:	48 89 e5             	mov    %rsp,%rbp
	spin_lock(&kernel_lock);
  8004200081:	48 bf 80 b7 22 04 80 	movabs $0x800422b780,%rdi
  8004200088:	00 00 00 
  800420008b:	48 b8 0e 5f 21 04 80 	movabs $0x8004215f0e,%rax
  8004200092:	00 00 00 
  8004200095:	ff d0                	callq  *%rax
}
  8004200097:	90                   	nop
  8004200098:	5d                   	pop    %rbp
  8004200099:	c3                   	retq   

000000800420009a <i386_init>:



void
i386_init(void)
{
  800420009a:	55                   	push   %rbp
  800420009b:	48 89 e5             	mov    %rsp,%rbp
	extern char edata[], end[];

	// Before doing anything else, complete the ELF loading process.
	// Clear the uninitialized global data (BSS) section of our program.
	// This ensures that all static/global variables start out zero.
	memset(edata, 0, end - edata);
  800420009e:	48 ba 10 60 3e 04 80 	movabs $0x80043e6010,%rdx
  80042000a5:	00 00 00 
  80042000a8:	48 b8 f0 15 36 04 80 	movabs $0x80043615f0,%rax
  80042000af:	00 00 00 
  80042000b2:	48 29 c2             	sub    %rax,%rdx
  80042000b5:	48 89 d0             	mov    %rdx,%rax
  80042000b8:	48 89 c2             	mov    %rax,%rdx
  80042000bb:	be 00 00 00 00       	mov    $0x0,%esi
  80042000c0:	48 bf f0 15 36 04 80 	movabs $0x80043615f0,%rdi
  80042000c7:	00 00 00 
  80042000ca:	48 b8 77 ec 20 04 80 	movabs $0x800420ec77,%rax
  80042000d1:	00 00 00 
  80042000d4:	ff d0                	callq  *%rax

	// Initialize the console.
	// Can't call cprintf until after we do this!
	cons_init();
  80042000d6:	48 b8 49 11 20 04 80 	movabs $0x8004201149,%rax
  80042000dd:	00 00 00 
  80042000e0:	ff d0                	callq  *%rax

	cprintf("6828 decimal is %o octal!\n", 6828);
  80042000e2:	be ac 1a 00 00       	mov    $0x1aac,%esi
  80042000e7:	48 bf 40 62 21 04 80 	movabs $0x8004216240,%rdi
  80042000ee:	00 00 00 
  80042000f1:	b8 00 00 00 00       	mov    $0x0,%eax
  80042000f6:	48 ba 0a 8e 20 04 80 	movabs $0x8004208e0a,%rdx
  80042000fd:	00 00 00 
  8004200100:	ff d2                	callq  *%rdx

	extern char end[];
	end_debug = read_section_headers((0x10000+KERNBASE), (uintptr_t)end);
  8004200102:	48 b8 10 60 3e 04 80 	movabs $0x80043e6010,%rax
  8004200109:	00 00 00 
  800420010c:	48 89 c6             	mov    %rax,%rsi
  800420010f:	48 bf 00 00 01 04 80 	movabs $0x8004010000,%rdi
  8004200116:	00 00 00 
  8004200119:	48 b8 d2 45 21 04 80 	movabs $0x80042145d2,%rax
  8004200120:	00 00 00 
  8004200123:	ff d0                	callq  *%rax
  8004200125:	48 89 c2             	mov    %rax,%rdx
  8004200128:	48 b8 08 37 36 04 80 	movabs $0x8004363708,%rax
  800420012f:	00 00 00 
  8004200132:	48 89 10             	mov    %rdx,(%rax)

	// Lab 2 memory management initialization functions
	x64_vm_init();
  8004200135:	b8 00 00 00 00       	mov    $0x0,%eax
  800420013a:	48 ba a5 23 20 04 80 	movabs $0x80042023a5,%rdx
  8004200141:	00 00 00 
  8004200144:	ff d2                	callq  *%rdx

	// Lab 3 user environment initialization functions
	env_init();
  8004200146:	48 b8 a2 78 20 04 80 	movabs $0x80042078a2,%rax
  800420014d:	00 00 00 
  8004200150:	ff d0                	callq  *%rax
	trap_init();
  8004200152:	48 b8 83 8f 20 04 80 	movabs $0x8004208f83,%rax
  8004200159:	00 00 00 
  800420015c:	ff d0                	callq  *%rax

	// Lab 4 multiprocessor initialization functions
	mp_init();
  800420015e:	48 b8 67 55 21 04 80 	movabs $0x8004215567,%rax
  8004200165:	00 00 00 
  8004200168:	ff d0                	callq  *%rax
	lapic_init();
  800420016a:	48 b8 6d 59 21 04 80 	movabs $0x800421596d,%rax
  8004200171:	00 00 00 
  8004200174:	ff d0                	callq  *%rax

	// Lab 4 multitasking initialization functions
	pic_init();
  8004200176:	48 b8 36 8b 20 04 80 	movabs $0x8004208b36,%rax
  800420017d:	00 00 00 
  8004200180:	ff d0                	callq  *%rax

	// Acquire the big kernel lock before waking up APs
	// Your code here:

	lock_kernel();
  8004200182:	48 b8 7d 00 20 04 80 	movabs $0x800420007d,%rax
  8004200189:	00 00 00 
  800420018c:	ff d0                	callq  *%rax

	// Starting non-boot CPUs
	boot_aps();
  800420018e:	48 b8 c1 01 20 04 80 	movabs $0x80042001c1,%rax
  8004200195:	00 00 00 
  8004200198:	ff d0                	callq  *%rax
	// Don't touch -- used by grading script!
	ENV_CREATE(TEST, ENV_TYPE_USER);
#else
	// Touch all you want.

	ENV_CREATE(user_sendpage,ENV_TYPE_USER);
  800420019a:	be 00 00 00 00       	mov    $0x0,%esi
  800420019f:	48 bf 28 a8 31 04 80 	movabs $0x800431a828,%rdi
  80042001a6:	00 00 00 
  80042001a9:	48 b8 3b 80 20 04 80 	movabs $0x800420803b,%rax
  80042001b0:	00 00 00 
  80042001b3:	ff d0                	callq  *%rax


#endif // TEST*

	// Schedule and run the first user environment!
	sched_yield();
  80042001b5:	48 b8 2e c1 20 04 80 	movabs $0x800420c12e,%rax
  80042001bc:	00 00 00 
  80042001bf:	ff d0                	callq  *%rax

00000080042001c1 <boot_aps>:
void *mpentry_kstack;

// Start the non-boot (AP) processors.
static void
boot_aps(void)
{
  80042001c1:	55                   	push   %rbp
  80042001c2:	48 89 e5             	mov    %rsp,%rbp
  80042001c5:	48 83 ec 30          	sub    $0x30,%rsp
	extern unsigned char mpentry_start[], mpentry_end[];
	void *code;
	struct CpuInfo *c;

	// Write entry code to unused memory at MPENTRY_PADDR
	code = KADDR(MPENTRY_PADDR);
  80042001c9:	48 c7 45 f0 00 70 00 	movq   $0x7000,-0x10(%rbp)
  80042001d0:	00 
  80042001d1:	48 8b 45 f0          	mov    -0x10(%rbp),%rax
  80042001d5:	48 c1 e8 0c          	shr    $0xc,%rax
  80042001d9:	89 45 ec             	mov    %eax,-0x14(%rbp)
  80042001dc:	8b 55 ec             	mov    -0x14(%rbp),%edx
  80042001df:	48 b8 30 37 36 04 80 	movabs $0x8004363730,%rax
  80042001e6:	00 00 00 
  80042001e9:	48 8b 00             	mov    (%rax),%rax
  80042001ec:	48 39 c2             	cmp    %rax,%rdx
  80042001ef:	72 32                	jb     8004200223 <boot_aps+0x62>
  80042001f1:	48 8b 45 f0          	mov    -0x10(%rbp),%rax
  80042001f5:	48 89 c1             	mov    %rax,%rcx
  80042001f8:	48 ba 60 62 21 04 80 	movabs $0x8004216260,%rdx
  80042001ff:	00 00 00 
  8004200202:	be 69 00 00 00       	mov    $0x69,%esi
  8004200207:	48 bf 83 62 21 04 80 	movabs $0x8004216283,%rdi
  800420020e:	00 00 00 
  8004200211:	b8 00 00 00 00       	mov    $0x0,%eax
  8004200216:	49 b8 9b 04 20 04 80 	movabs $0x800420049b,%r8
  800420021d:	00 00 00 
  8004200220:	41 ff d0             	callq  *%r8
  8004200223:	48 ba 00 00 00 04 80 	movabs $0x8004000000,%rdx
  800420022a:	00 00 00 
  800420022d:	48 8b 45 f0          	mov    -0x10(%rbp),%rax
  8004200231:	48 01 d0             	add    %rdx,%rax
  8004200234:	48 89 45 e0          	mov    %rax,-0x20(%rbp)
	memmove(code, mpentry_start, mpentry_end - mpentry_start);
  8004200238:	48 ba 8e 50 21 04 80 	movabs $0x800421508e,%rdx
  800420023f:	00 00 00 
  8004200242:	48 b8 a8 4f 21 04 80 	movabs $0x8004214fa8,%rax
  8004200249:	00 00 00 
  800420024c:	48 29 c2             	sub    %rax,%rdx
  800420024f:	48 89 d0             	mov    %rdx,%rax
  8004200252:	48 89 c2             	mov    %rax,%rdx
  8004200255:	48 8b 45 e0          	mov    -0x20(%rbp),%rax
  8004200259:	48 be a8 4f 21 04 80 	movabs $0x8004214fa8,%rsi
  8004200260:	00 00 00 
  8004200263:	48 89 c7             	mov    %rax,%rdi
  8004200266:	48 b8 02 ed 20 04 80 	movabs $0x800420ed02,%rax
  800420026d:	00 00 00 
  8004200270:	ff d0                	callq  *%rax
	// Boot each AP one at a time
	for (c = cpus; c < cpus + ncpu; c++) {
  8004200272:	48 b8 20 50 36 04 80 	movabs $0x8004365020,%rax
  8004200279:	00 00 00 
  800420027c:	48 89 45 f8          	mov    %rax,-0x8(%rbp)
  8004200280:	e9 10 01 00 00       	jmpq   8004200395 <boot_aps+0x1d4>
		if (c == cpus + cpunum())  // We've started already.
  8004200285:	48 b8 73 5b 21 04 80 	movabs $0x8004215b73,%rax
  800420028c:	00 00 00 
  800420028f:	ff d0                	callq  *%rax
  8004200291:	48 98                	cltq   
  8004200293:	48 c1 e0 03          	shl    $0x3,%rax
  8004200297:	48 89 c2             	mov    %rax,%rdx
  800420029a:	48 c1 e2 04          	shl    $0x4,%rdx
  800420029e:	48 29 c2             	sub    %rax,%rdx
  80042002a1:	48 b8 20 50 36 04 80 	movabs $0x8004365020,%rax
  80042002a8:	00 00 00 
  80042002ab:	48 01 d0             	add    %rdx,%rax
  80042002ae:	48 3b 45 f8          	cmp    -0x8(%rbp),%rax
  80042002b2:	0f 84 d7 00 00 00    	je     800420038f <boot_aps+0x1ce>
			continue;

		// Tell mpentry.S what stack to use 
		mpentry_kstack = percpu_kstacks[c - cpus] + KSTKSIZE;
  80042002b8:	48 8b 55 f8          	mov    -0x8(%rbp),%rdx
  80042002bc:	48 b8 20 50 36 04 80 	movabs $0x8004365020,%rax
  80042002c3:	00 00 00 
  80042002c6:	48 29 c2             	sub    %rax,%rdx
  80042002c9:	48 89 d0             	mov    %rdx,%rax
  80042002cc:	48 c1 f8 03          	sar    $0x3,%rax
  80042002d0:	48 89 c2             	mov    %rax,%rdx
  80042002d3:	48 b8 ef ee ee ee ee 	movabs $0xeeeeeeeeeeeeeeef,%rax
  80042002da:	ee ee ee 
  80042002dd:	48 0f af c2          	imul   %rdx,%rax
  80042002e1:	48 c1 e0 10          	shl    $0x10,%rax
  80042002e5:	48 89 c2             	mov    %rax,%rdx
  80042002e8:	48 b8 00 60 36 04 80 	movabs $0x8004366000,%rax
  80042002ef:	00 00 00 
  80042002f2:	48 01 d0             	add    %rdx,%rax
  80042002f5:	48 8d 90 00 00 01 00 	lea    0x10000(%rax),%rdx
  80042002fc:	48 b8 18 37 36 04 80 	movabs $0x8004363718,%rax
  8004200303:	00 00 00 
  8004200306:	48 89 10             	mov    %rdx,(%rax)
		// Start the CPU at mpentry_start
		lapic_startap(c->cpu_id, PADDR(code));
  8004200309:	48 8b 45 e0          	mov    -0x20(%rbp),%rax
  800420030d:	48 89 45 d8          	mov    %rax,-0x28(%rbp)
  8004200311:	48 b8 ff ff ff 03 80 	movabs $0x8003ffffff,%rax
  8004200318:	00 00 00 
  800420031b:	48 39 45 d8          	cmp    %rax,-0x28(%rbp)
  800420031f:	77 32                	ja     8004200353 <boot_aps+0x192>
  8004200321:	48 8b 45 d8          	mov    -0x28(%rbp),%rax
  8004200325:	48 89 c1             	mov    %rax,%rcx
  8004200328:	48 ba 90 62 21 04 80 	movabs $0x8004216290,%rdx
  800420032f:	00 00 00 
  8004200332:	be 73 00 00 00       	mov    $0x73,%esi
  8004200337:	48 bf 83 62 21 04 80 	movabs $0x8004216283,%rdi
  800420033e:	00 00 00 
  8004200341:	b8 00 00 00 00       	mov    $0x0,%eax
  8004200346:	49 b8 9b 04 20 04 80 	movabs $0x800420049b,%r8
  800420034d:	00 00 00 
  8004200350:	41 ff d0             	callq  *%r8
  8004200353:	48 ba 00 00 00 fc 7f 	movabs $0xffffff7ffc000000,%rdx
  800420035a:	ff ff ff 
  800420035d:	48 8b 45 d8          	mov    -0x28(%rbp),%rax
  8004200361:	48 01 d0             	add    %rdx,%rax
  8004200364:	89 c2                	mov    %eax,%edx
  8004200366:	48 8b 45 f8          	mov    -0x8(%rbp),%rax
  800420036a:	0f b6 00             	movzbl (%rax),%eax
  800420036d:	0f b6 c0             	movzbl %al,%eax
  8004200370:	89 d6                	mov    %edx,%esi
  8004200372:	89 c7                	mov    %eax,%edi
  8004200374:	48 b8 e5 5b 21 04 80 	movabs $0x8004215be5,%rax
  800420037b:	00 00 00 
  800420037e:	ff d0                	callq  *%rax
		// Wait for the CPU to finish some basic setup in mp_main()
		while(c->cpu_status != CPU_STARTED)
  8004200380:	90                   	nop
  8004200381:	48 8b 45 f8          	mov    -0x8(%rbp),%rax
  8004200385:	8b 40 04             	mov    0x4(%rax),%eax
  8004200388:	83 f8 01             	cmp    $0x1,%eax
  800420038b:	75 f4                	jne    8004200381 <boot_aps+0x1c0>
  800420038d:	eb 01                	jmp    8004200390 <boot_aps+0x1cf>
	code = KADDR(MPENTRY_PADDR);
	memmove(code, mpentry_start, mpentry_end - mpentry_start);
	// Boot each AP one at a time
	for (c = cpus; c < cpus + ncpu; c++) {
		if (c == cpus + cpunum())  // We've started already.
			continue;
  800420038f:	90                   	nop

	// Write entry code to unused memory at MPENTRY_PADDR
	code = KADDR(MPENTRY_PADDR);
	memmove(code, mpentry_start, mpentry_end - mpentry_start);
	// Boot each AP one at a time
	for (c = cpus; c < cpus + ncpu; c++) {
  8004200390:	48 83 45 f8 78       	addq   $0x78,-0x8(%rbp)
  8004200395:	48 b8 e8 53 36 04 80 	movabs $0x80043653e8,%rax
  800420039c:	00 00 00 
  800420039f:	8b 00                	mov    (%rax),%eax
  80042003a1:	48 98                	cltq   
  80042003a3:	48 c1 e0 03          	shl    $0x3,%rax
  80042003a7:	48 89 c2             	mov    %rax,%rdx
  80042003aa:	48 c1 e2 04          	shl    $0x4,%rdx
  80042003ae:	48 29 c2             	sub    %rax,%rdx
  80042003b1:	48 b8 20 50 36 04 80 	movabs $0x8004365020,%rax
  80042003b8:	00 00 00 
  80042003bb:	48 01 d0             	add    %rdx,%rax
  80042003be:	48 3b 45 f8          	cmp    -0x8(%rbp),%rax
  80042003c2:	0f 87 bd fe ff ff    	ja     8004200285 <boot_aps+0xc4>
		lapic_startap(c->cpu_id, PADDR(code));
		// Wait for the CPU to finish some basic setup in mp_main()
		while(c->cpu_status != CPU_STARTED)
			;
	}
}
  80042003c8:	90                   	nop
  80042003c9:	c9                   	leaveq 
  80042003ca:	c3                   	retq   

00000080042003cb <mp_main>:

// Setup code for APs
void
mp_main(void)
{
  80042003cb:	55                   	push   %rbp
  80042003cc:	48 89 e5             	mov    %rsp,%rbp
  80042003cf:	48 83 ec 10          	sub    $0x10,%rsp
	// We are in high EIP now, safe to switch to kern_pgdir 
	lcr3(boot_cr3);
  80042003d3:	48 b8 20 37 36 04 80 	movabs $0x8004363720,%rax
  80042003da:	00 00 00 
  80042003dd:	48 8b 00             	mov    (%rax),%rax
  80042003e0:	48 89 45 f8          	mov    %rax,-0x8(%rbp)
}

static __inline void
lcr3(uint64_t val)
{
	__asm __volatile("movq %0,%%cr3" : : "r" (val));
  80042003e4:	48 8b 45 f8          	mov    -0x8(%rbp),%rax
  80042003e8:	0f 22 d8             	mov    %rax,%cr3

	cprintf("SMP: CPU %d starting\n", cpunum());
  80042003eb:	48 b8 73 5b 21 04 80 	movabs $0x8004215b73,%rax
  80042003f2:	00 00 00 
  80042003f5:	ff d0                	callq  *%rax
  80042003f7:	89 c6                	mov    %eax,%esi
  80042003f9:	48 bf b4 62 21 04 80 	movabs $0x80042162b4,%rdi
  8004200400:	00 00 00 
  8004200403:	b8 00 00 00 00       	mov    $0x0,%eax
  8004200408:	48 ba 0a 8e 20 04 80 	movabs $0x8004208e0a,%rdx
  800420040f:	00 00 00 
  8004200412:	ff d2                	callq  *%rdx

	lapic_init();
  8004200414:	48 b8 6d 59 21 04 80 	movabs $0x800421596d,%rax
  800420041b:	00 00 00 
  800420041e:	ff d0                	callq  *%rax
	env_init_percpu();
  8004200420:	48 b8 ab 79 20 04 80 	movabs $0x80042079ab,%rax
  8004200427:	00 00 00 
  800420042a:	ff d0                	callq  *%rax
	trap_init_percpu();
  800420042c:	48 b8 cc ab 20 04 80 	movabs $0x800420abcc,%rax
  8004200433:	00 00 00 
  8004200436:	ff d0                	callq  *%rax
	xchg(&thiscpu->cpu_status, CPU_STARTED); // tell boot_aps() we're up
  8004200438:	48 b8 73 5b 21 04 80 	movabs $0x8004215b73,%rax
  800420043f:	00 00 00 
  8004200442:	ff d0                	callq  *%rax
  8004200444:	48 98                	cltq   
  8004200446:	48 89 c2             	mov    %rax,%rdx
  8004200449:	48 8d 04 d5 00 00 00 	lea    0x0(,%rdx,8),%rax
  8004200450:	00 
  8004200451:	48 89 c2             	mov    %rax,%rdx
  8004200454:	48 89 d0             	mov    %rdx,%rax
  8004200457:	48 c1 e0 04          	shl    $0x4,%rax
  800420045b:	48 29 d0             	sub    %rdx,%rax
  800420045e:	48 ba 20 50 36 04 80 	movabs $0x8004365020,%rdx
  8004200465:	00 00 00 
  8004200468:	48 01 d0             	add    %rdx,%rax
  800420046b:	48 83 c0 04          	add    $0x4,%rax
  800420046f:	be 01 00 00 00       	mov    $0x1,%esi
  8004200474:	48 89 c7             	mov    %rax,%rdi
  8004200477:	48 b8 58 00 20 04 80 	movabs $0x8004200058,%rax
  800420047e:	00 00 00 
  8004200481:	ff d0                	callq  *%rax
	// to start running processes on this CPU.  But make sure that
	// only one CPU can enter the scheduler at a time!
	//
	// Your code here:

	lock_kernel();
  8004200483:	48 b8 7d 00 20 04 80 	movabs $0x800420007d,%rax
  800420048a:	00 00 00 
  800420048d:	ff d0                	callq  *%rax
	sched_yield();
  800420048f:	48 b8 2e c1 20 04 80 	movabs $0x800420c12e,%rax
  8004200496:	00 00 00 
  8004200499:	ff d0                	callq  *%rax

000000800420049b <_panic>:
 * Panic is called on unresolvable fatal errors.
 * It prints "panic: mesg", and then enters the kernel monitor.
 */
void
_panic(const char *file, int line, const char *fmt,...)
{
  800420049b:	55                   	push   %rbp
  800420049c:	48 89 e5             	mov    %rsp,%rbp
  800420049f:	48 81 ec f0 00 00 00 	sub    $0xf0,%rsp
  80042004a6:	48 89 bd 28 ff ff ff 	mov    %rdi,-0xd8(%rbp)
  80042004ad:	89 b5 24 ff ff ff    	mov    %esi,-0xdc(%rbp)
  80042004b3:	48 89 95 18 ff ff ff 	mov    %rdx,-0xe8(%rbp)
  80042004ba:	48 89 8d 68 ff ff ff 	mov    %rcx,-0x98(%rbp)
  80042004c1:	4c 89 85 70 ff ff ff 	mov    %r8,-0x90(%rbp)
  80042004c8:	4c 89 8d 78 ff ff ff 	mov    %r9,-0x88(%rbp)
  80042004cf:	84 c0                	test   %al,%al
  80042004d1:	74 20                	je     80042004f3 <_panic+0x58>
  80042004d3:	0f 29 45 80          	movaps %xmm0,-0x80(%rbp)
  80042004d7:	0f 29 4d 90          	movaps %xmm1,-0x70(%rbp)
  80042004db:	0f 29 55 a0          	movaps %xmm2,-0x60(%rbp)
  80042004df:	0f 29 5d b0          	movaps %xmm3,-0x50(%rbp)
  80042004e3:	0f 29 65 c0          	movaps %xmm4,-0x40(%rbp)
  80042004e7:	0f 29 6d d0          	movaps %xmm5,-0x30(%rbp)
  80042004eb:	0f 29 75 e0          	movaps %xmm6,-0x20(%rbp)
  80042004ef:	0f 29 7d f0          	movaps %xmm7,-0x10(%rbp)
	va_list ap;

	if (panicstr)
  80042004f3:	48 b8 10 37 36 04 80 	movabs $0x8004363710,%rax
  80042004fa:	00 00 00 
  80042004fd:	48 8b 00             	mov    (%rax),%rax
  8004200500:	48 85 c0             	test   %rax,%rax
  8004200503:	74 05                	je     800420050a <_panic+0x6f>
		goto dead;
  8004200505:	e9 ba 00 00 00       	jmpq   80042005c4 <_panic+0x129>
	panicstr = fmt;
  800420050a:	48 b8 10 37 36 04 80 	movabs $0x8004363710,%rax
  8004200511:	00 00 00 
  8004200514:	48 8b 95 18 ff ff ff 	mov    -0xe8(%rbp),%rdx
  800420051b:	48 89 10             	mov    %rdx,(%rax)

	// Be extra sure that the machine is in as reasonable state
	__asm __volatile("cli; cld");
  800420051e:	fa                   	cli    
  800420051f:	fc                   	cld    

	va_start(ap, fmt);
  8004200520:	c7 85 38 ff ff ff 18 	movl   $0x18,-0xc8(%rbp)
  8004200527:	00 00 00 
  800420052a:	c7 85 3c ff ff ff 30 	movl   $0x30,-0xc4(%rbp)
  8004200531:	00 00 00 
  8004200534:	48 8d 45 10          	lea    0x10(%rbp),%rax
  8004200538:	48 89 85 40 ff ff ff 	mov    %rax,-0xc0(%rbp)
  800420053f:	48 8d 85 50 ff ff ff 	lea    -0xb0(%rbp),%rax
  8004200546:	48 89 85 48 ff ff ff 	mov    %rax,-0xb8(%rbp)
	cprintf("kernel panic on CPU %d at %s:%d: ", cpunum(), file, line);
  800420054d:	48 b8 73 5b 21 04 80 	movabs $0x8004215b73,%rax
  8004200554:	00 00 00 
  8004200557:	ff d0                	callq  *%rax
  8004200559:	89 c6                	mov    %eax,%esi
  800420055b:	8b 95 24 ff ff ff    	mov    -0xdc(%rbp),%edx
  8004200561:	48 8b 85 28 ff ff ff 	mov    -0xd8(%rbp),%rax
  8004200568:	89 d1                	mov    %edx,%ecx
  800420056a:	48 89 c2             	mov    %rax,%rdx
  800420056d:	48 bf d0 62 21 04 80 	movabs $0x80042162d0,%rdi
  8004200574:	00 00 00 
  8004200577:	b8 00 00 00 00       	mov    $0x0,%eax
  800420057c:	49 b8 0a 8e 20 04 80 	movabs $0x8004208e0a,%r8
  8004200583:	00 00 00 
  8004200586:	41 ff d0             	callq  *%r8
	vcprintf(fmt, ap);
  8004200589:	48 8d 95 38 ff ff ff 	lea    -0xc8(%rbp),%rdx
  8004200590:	48 8b 85 18 ff ff ff 	mov    -0xe8(%rbp),%rax
  8004200597:	48 89 d6             	mov    %rdx,%rsi
  800420059a:	48 89 c7             	mov    %rax,%rdi
  800420059d:	48 b8 ab 8d 20 04 80 	movabs $0x8004208dab,%rax
  80042005a4:	00 00 00 
  80042005a7:	ff d0                	callq  *%rax
	cprintf("\n");
  80042005a9:	48 bf f2 62 21 04 80 	movabs $0x80042162f2,%rdi
  80042005b0:	00 00 00 
  80042005b3:	b8 00 00 00 00       	mov    $0x0,%eax
  80042005b8:	48 ba 0a 8e 20 04 80 	movabs $0x8004208e0a,%rdx
  80042005bf:	00 00 00 
  80042005c2:	ff d2                	callq  *%rdx
	va_end(ap);

dead:
	/* break into the kernel monitor */
	while (1)
		monitor(NULL);
  80042005c4:	bf 00 00 00 00       	mov    $0x0,%edi
  80042005c9:	48 b8 4e 18 20 04 80 	movabs $0x800420184e,%rax
  80042005d0:	00 00 00 
  80042005d3:	ff d0                	callq  *%rax
  80042005d5:	eb ed                	jmp    80042005c4 <_panic+0x129>

00000080042005d7 <_warn>:
}

/* like panic, but don't */
void
_warn(const char *file, int line, const char *fmt,...)
{
  80042005d7:	55                   	push   %rbp
  80042005d8:	48 89 e5             	mov    %rsp,%rbp
  80042005db:	48 81 ec f0 00 00 00 	sub    $0xf0,%rsp
  80042005e2:	48 89 bd 28 ff ff ff 	mov    %rdi,-0xd8(%rbp)
  80042005e9:	89 b5 24 ff ff ff    	mov    %esi,-0xdc(%rbp)
  80042005ef:	48 89 95 18 ff ff ff 	mov    %rdx,-0xe8(%rbp)
  80042005f6:	48 89 8d 68 ff ff ff 	mov    %rcx,-0x98(%rbp)
  80042005fd:	4c 89 85 70 ff ff ff 	mov    %r8,-0x90(%rbp)
  8004200604:	4c 89 8d 78 ff ff ff 	mov    %r9,-0x88(%rbp)
  800420060b:	84 c0                	test   %al,%al
  800420060d:	74 20                	je     800420062f <_warn+0x58>
  800420060f:	0f 29 45 80          	movaps %xmm0,-0x80(%rbp)
  8004200613:	0f 29 4d 90          	movaps %xmm1,-0x70(%rbp)
  8004200617:	0f 29 55 a0          	movaps %xmm2,-0x60(%rbp)
  800420061b:	0f 29 5d b0          	movaps %xmm3,-0x50(%rbp)
  800420061f:	0f 29 65 c0          	movaps %xmm4,-0x40(%rbp)
  8004200623:	0f 29 6d d0          	movaps %xmm5,-0x30(%rbp)
  8004200627:	0f 29 75 e0          	movaps %xmm6,-0x20(%rbp)
  800420062b:	0f 29 7d f0          	movaps %xmm7,-0x10(%rbp)
	va_list ap;

	va_start(ap, fmt);
  800420062f:	c7 85 38 ff ff ff 18 	movl   $0x18,-0xc8(%rbp)
  8004200636:	00 00 00 
  8004200639:	c7 85 3c ff ff ff 30 	movl   $0x30,-0xc4(%rbp)
  8004200640:	00 00 00 
  8004200643:	48 8d 45 10          	lea    0x10(%rbp),%rax
  8004200647:	48 89 85 40 ff ff ff 	mov    %rax,-0xc0(%rbp)
  800420064e:	48 8d 85 50 ff ff ff 	lea    -0xb0(%rbp),%rax
  8004200655:	48 89 85 48 ff ff ff 	mov    %rax,-0xb8(%rbp)
	cprintf("kernel warning at %s:%d: ", file, line);
  800420065c:	8b 95 24 ff ff ff    	mov    -0xdc(%rbp),%edx
  8004200662:	48 8b 85 28 ff ff ff 	mov    -0xd8(%rbp),%rax
  8004200669:	48 89 c6             	mov    %rax,%rsi
  800420066c:	48 bf f4 62 21 04 80 	movabs $0x80042162f4,%rdi
  8004200673:	00 00 00 
  8004200676:	b8 00 00 00 00       	mov    $0x0,%eax
  800420067b:	48 b9 0a 8e 20 04 80 	movabs $0x8004208e0a,%rcx
  8004200682:	00 00 00 
  8004200685:	ff d1                	callq  *%rcx
	vcprintf(fmt, ap);
  8004200687:	48 8d 95 38 ff ff ff 	lea    -0xc8(%rbp),%rdx
  800420068e:	48 8b 85 18 ff ff ff 	mov    -0xe8(%rbp),%rax
  8004200695:	48 89 d6             	mov    %rdx,%rsi
  8004200698:	48 89 c7             	mov    %rax,%rdi
  800420069b:	48 b8 ab 8d 20 04 80 	movabs $0x8004208dab,%rax
  80042006a2:	00 00 00 
  80042006a5:	ff d0                	callq  *%rax
	cprintf("\n");
  80042006a7:	48 bf f2 62 21 04 80 	movabs $0x80042162f2,%rdi
  80042006ae:	00 00 00 
  80042006b1:	b8 00 00 00 00       	mov    $0x0,%eax
  80042006b6:	48 ba 0a 8e 20 04 80 	movabs $0x8004208e0a,%rdx
  80042006bd:	00 00 00 
  80042006c0:	ff d2                	callq  *%rdx
	va_end(ap);
}
  80042006c2:	90                   	nop
  80042006c3:	c9                   	leaveq 
  80042006c4:	c3                   	retq   

00000080042006c5 <delay>:
static void cons_putc(int c);

// Stupid I/O delay routine necessitated by historical PC design flaws
static void
delay(void)
{
  80042006c5:	55                   	push   %rbp
  80042006c6:	48 89 e5             	mov    %rsp,%rbp
  80042006c9:	48 83 ec 20          	sub    $0x20,%rsp
  80042006cd:	c7 45 fc 84 00 00 00 	movl   $0x84,-0x4(%rbp)

static __inline uint8_t
inb(int port)
{
	uint8_t data;
	__asm __volatile("inb %w1,%0" : "=a" (data) : "d" (port));
  80042006d4:	8b 45 fc             	mov    -0x4(%rbp),%eax
  80042006d7:	89 c2                	mov    %eax,%edx
  80042006d9:	ec                   	in     (%dx),%al
  80042006da:	88 45 ec             	mov    %al,-0x14(%rbp)
  80042006dd:	c7 45 f8 84 00 00 00 	movl   $0x84,-0x8(%rbp)
  80042006e4:	8b 45 f8             	mov    -0x8(%rbp),%eax
  80042006e7:	89 c2                	mov    %eax,%edx
  80042006e9:	ec                   	in     (%dx),%al
  80042006ea:	88 45 ed             	mov    %al,-0x13(%rbp)
  80042006ed:	c7 45 f4 84 00 00 00 	movl   $0x84,-0xc(%rbp)
  80042006f4:	8b 45 f4             	mov    -0xc(%rbp),%eax
  80042006f7:	89 c2                	mov    %eax,%edx
  80042006f9:	ec                   	in     (%dx),%al
  80042006fa:	88 45 ee             	mov    %al,-0x12(%rbp)
  80042006fd:	c7 45 f0 84 00 00 00 	movl   $0x84,-0x10(%rbp)
  8004200704:	8b 45 f0             	mov    -0x10(%rbp),%eax
  8004200707:	89 c2                	mov    %eax,%edx
  8004200709:	ec                   	in     (%dx),%al
  800420070a:	88 45 ef             	mov    %al,-0x11(%rbp)
	inb(0x84);
	inb(0x84);
	inb(0x84);
	inb(0x84);
}
  800420070d:	90                   	nop
  800420070e:	c9                   	leaveq 
  800420070f:	c3                   	retq   

0000008004200710 <serial_proc_data>:

static bool serial_exists;

static int
serial_proc_data(void)
{
  8004200710:	55                   	push   %rbp
  8004200711:	48 89 e5             	mov    %rsp,%rbp
  8004200714:	48 83 ec 10          	sub    $0x10,%rsp
  8004200718:	c7 45 f8 fd 03 00 00 	movl   $0x3fd,-0x8(%rbp)
  800420071f:	8b 45 f8             	mov    -0x8(%rbp),%eax
  8004200722:	89 c2                	mov    %eax,%edx
  8004200724:	ec                   	in     (%dx),%al
  8004200725:	88 45 f7             	mov    %al,-0x9(%rbp)
	return data;
  8004200728:	0f b6 45 f7          	movzbl -0x9(%rbp),%eax
	if (!(inb(COM1+COM_LSR) & COM_LSR_DATA))
  800420072c:	0f b6 c0             	movzbl %al,%eax
  800420072f:	83 e0 01             	and    $0x1,%eax
  8004200732:	85 c0                	test   %eax,%eax
  8004200734:	75 07                	jne    800420073d <serial_proc_data+0x2d>
		return -1;
  8004200736:	b8 ff ff ff ff       	mov    $0xffffffff,%eax
  800420073b:	eb 17                	jmp    8004200754 <serial_proc_data+0x44>
  800420073d:	c7 45 fc f8 03 00 00 	movl   $0x3f8,-0x4(%rbp)

static __inline uint8_t
inb(int port)
{
	uint8_t data;
	__asm __volatile("inb %w1,%0" : "=a" (data) : "d" (port));
  8004200744:	8b 45 fc             	mov    -0x4(%rbp),%eax
  8004200747:	89 c2                	mov    %eax,%edx
  8004200749:	ec                   	in     (%dx),%al
  800420074a:	88 45 f6             	mov    %al,-0xa(%rbp)
	return data;
  800420074d:	0f b6 45 f6          	movzbl -0xa(%rbp),%eax
	return inb(COM1+COM_RX);
  8004200751:	0f b6 c0             	movzbl %al,%eax
}
  8004200754:	c9                   	leaveq 
  8004200755:	c3                   	retq   

0000008004200756 <serial_intr>:

void
serial_intr(void)
{
  8004200756:	55                   	push   %rbp
  8004200757:	48 89 e5             	mov    %rsp,%rbp
	if (serial_exists)
  800420075a:	48 b8 00 20 36 04 80 	movabs $0x8004362000,%rax
  8004200761:	00 00 00 
  8004200764:	0f b6 00             	movzbl (%rax),%eax
  8004200767:	84 c0                	test   %al,%al
  8004200769:	74 16                	je     8004200781 <serial_intr+0x2b>
		cons_intr(serial_proc_data);
  800420076b:	48 bf 10 07 20 04 80 	movabs $0x8004200710,%rdi
  8004200772:	00 00 00 
  8004200775:	48 b8 ca 0f 20 04 80 	movabs $0x8004200fca,%rax
  800420077c:	00 00 00 
  800420077f:	ff d0                	callq  *%rax
}
  8004200781:	90                   	nop
  8004200782:	5d                   	pop    %rbp
  8004200783:	c3                   	retq   

0000008004200784 <serial_putc>:

static void
serial_putc(int c)
{
  8004200784:	55                   	push   %rbp
  8004200785:	48 89 e5             	mov    %rsp,%rbp
  8004200788:	48 83 ec 18          	sub    $0x18,%rsp
  800420078c:	89 7d ec             	mov    %edi,-0x14(%rbp)
	int i;

	for (i = 0;
  800420078f:	c7 45 fc 00 00 00 00 	movl   $0x0,-0x4(%rbp)
  8004200796:	eb 10                	jmp    80042007a8 <serial_putc+0x24>
	     !(inb(COM1 + COM_LSR) & COM_LSR_TXRDY) && i < 12800;
	     i++)
		delay();
  8004200798:	48 b8 c5 06 20 04 80 	movabs $0x80042006c5,%rax
  800420079f:	00 00 00 
  80042007a2:	ff d0                	callq  *%rax
{
	int i;

	for (i = 0;
	     !(inb(COM1 + COM_LSR) & COM_LSR_TXRDY) && i < 12800;
	     i++)
  80042007a4:	83 45 fc 01          	addl   $0x1,-0x4(%rbp)
  80042007a8:	c7 45 f4 fd 03 00 00 	movl   $0x3fd,-0xc(%rbp)

static __inline uint8_t
inb(int port)
{
	uint8_t data;
	__asm __volatile("inb %w1,%0" : "=a" (data) : "d" (port));
  80042007af:	8b 45 f4             	mov    -0xc(%rbp),%eax
  80042007b2:	89 c2                	mov    %eax,%edx
  80042007b4:	ec                   	in     (%dx),%al
  80042007b5:	88 45 f3             	mov    %al,-0xd(%rbp)
	return data;
  80042007b8:	0f b6 45 f3          	movzbl -0xd(%rbp),%eax
serial_putc(int c)
{
	int i;

	for (i = 0;
	     !(inb(COM1 + COM_LSR) & COM_LSR_TXRDY) && i < 12800;
  80042007bc:	0f b6 c0             	movzbl %al,%eax
  80042007bf:	83 e0 20             	and    $0x20,%eax
static void
serial_putc(int c)
{
	int i;

	for (i = 0;
  80042007c2:	85 c0                	test   %eax,%eax
  80042007c4:	75 09                	jne    80042007cf <serial_putc+0x4b>
	     !(inb(COM1 + COM_LSR) & COM_LSR_TXRDY) && i < 12800;
  80042007c6:	81 7d fc ff 31 00 00 	cmpl   $0x31ff,-0x4(%rbp)
  80042007cd:	7e c9                	jle    8004200798 <serial_putc+0x14>
	     i++)
		delay();

	outb(COM1 + COM_TX, c);
  80042007cf:	8b 45 ec             	mov    -0x14(%rbp),%eax
  80042007d2:	0f b6 c0             	movzbl %al,%eax
  80042007d5:	c7 45 f8 f8 03 00 00 	movl   $0x3f8,-0x8(%rbp)
  80042007dc:	88 45 f2             	mov    %al,-0xe(%rbp)
}

static __inline void
outb(int port, uint8_t data)
{
	__asm __volatile("outb %0,%w1" : : "a" (data), "d" (port));
  80042007df:	0f b6 45 f2          	movzbl -0xe(%rbp),%eax
  80042007e3:	8b 55 f8             	mov    -0x8(%rbp),%edx
  80042007e6:	ee                   	out    %al,(%dx)
}
  80042007e7:	90                   	nop
  80042007e8:	c9                   	leaveq 
  80042007e9:	c3                   	retq   

00000080042007ea <serial_init>:

static void
serial_init(void)
{
  80042007ea:	55                   	push   %rbp
  80042007eb:	48 89 e5             	mov    %rsp,%rbp
  80042007ee:	48 83 ec 40          	sub    $0x40,%rsp
  80042007f2:	c7 45 fc fa 03 00 00 	movl   $0x3fa,-0x4(%rbp)
  80042007f9:	c6 45 ce 00          	movb   $0x0,-0x32(%rbp)
  80042007fd:	0f b6 45 ce          	movzbl -0x32(%rbp),%eax
  8004200801:	8b 55 fc             	mov    -0x4(%rbp),%edx
  8004200804:	ee                   	out    %al,(%dx)
  8004200805:	c7 45 f8 fb 03 00 00 	movl   $0x3fb,-0x8(%rbp)
  800420080c:	c6 45 cf 80          	movb   $0x80,-0x31(%rbp)
  8004200810:	0f b6 45 cf          	movzbl -0x31(%rbp),%eax
  8004200814:	8b 55 f8             	mov    -0x8(%rbp),%edx
  8004200817:	ee                   	out    %al,(%dx)
  8004200818:	c7 45 f4 f8 03 00 00 	movl   $0x3f8,-0xc(%rbp)
  800420081f:	c6 45 d0 0c          	movb   $0xc,-0x30(%rbp)
  8004200823:	0f b6 45 d0          	movzbl -0x30(%rbp),%eax
  8004200827:	8b 55 f4             	mov    -0xc(%rbp),%edx
  800420082a:	ee                   	out    %al,(%dx)
  800420082b:	c7 45 f0 f9 03 00 00 	movl   $0x3f9,-0x10(%rbp)
  8004200832:	c6 45 d1 00          	movb   $0x0,-0x2f(%rbp)
  8004200836:	0f b6 45 d1          	movzbl -0x2f(%rbp),%eax
  800420083a:	8b 55 f0             	mov    -0x10(%rbp),%edx
  800420083d:	ee                   	out    %al,(%dx)
  800420083e:	c7 45 ec fb 03 00 00 	movl   $0x3fb,-0x14(%rbp)
  8004200845:	c6 45 d2 03          	movb   $0x3,-0x2e(%rbp)
  8004200849:	0f b6 45 d2          	movzbl -0x2e(%rbp),%eax
  800420084d:	8b 55 ec             	mov    -0x14(%rbp),%edx
  8004200850:	ee                   	out    %al,(%dx)
  8004200851:	c7 45 e8 fc 03 00 00 	movl   $0x3fc,-0x18(%rbp)
  8004200858:	c6 45 d3 00          	movb   $0x0,-0x2d(%rbp)
  800420085c:	0f b6 45 d3          	movzbl -0x2d(%rbp),%eax
  8004200860:	8b 55 e8             	mov    -0x18(%rbp),%edx
  8004200863:	ee                   	out    %al,(%dx)
  8004200864:	c7 45 e4 f9 03 00 00 	movl   $0x3f9,-0x1c(%rbp)
  800420086b:	c6 45 d4 01          	movb   $0x1,-0x2c(%rbp)
  800420086f:	0f b6 45 d4          	movzbl -0x2c(%rbp),%eax
  8004200873:	8b 55 e4             	mov    -0x1c(%rbp),%edx
  8004200876:	ee                   	out    %al,(%dx)
  8004200877:	c7 45 e0 fd 03 00 00 	movl   $0x3fd,-0x20(%rbp)

static __inline uint8_t
inb(int port)
{
	uint8_t data;
	__asm __volatile("inb %w1,%0" : "=a" (data) : "d" (port));
  800420087e:	8b 45 e0             	mov    -0x20(%rbp),%eax
  8004200881:	89 c2                	mov    %eax,%edx
  8004200883:	ec                   	in     (%dx),%al
  8004200884:	88 45 d5             	mov    %al,-0x2b(%rbp)
	return data;
  8004200887:	0f b6 45 d5          	movzbl -0x2b(%rbp),%eax
	// Enable rcv interrupts
	outb(COM1+COM_IER, COM_IER_RDI);

	// Clear any preexisting overrun indications and interrupts
	// Serial port doesn't exist if COM_LSR returns 0xFF
	serial_exists = (inb(COM1+COM_LSR) != 0xFF);
  800420088b:	3c ff                	cmp    $0xff,%al
  800420088d:	0f 95 c2             	setne  %dl
  8004200890:	48 b8 00 20 36 04 80 	movabs $0x8004362000,%rax
  8004200897:	00 00 00 
  800420089a:	88 10                	mov    %dl,(%rax)
  800420089c:	c7 45 dc fa 03 00 00 	movl   $0x3fa,-0x24(%rbp)

static __inline uint8_t
inb(int port)
{
	uint8_t data;
	__asm __volatile("inb %w1,%0" : "=a" (data) : "d" (port));
  80042008a3:	8b 45 dc             	mov    -0x24(%rbp),%eax
  80042008a6:	89 c2                	mov    %eax,%edx
  80042008a8:	ec                   	in     (%dx),%al
  80042008a9:	88 45 d6             	mov    %al,-0x2a(%rbp)
  80042008ac:	c7 45 d8 f8 03 00 00 	movl   $0x3f8,-0x28(%rbp)
  80042008b3:	8b 45 d8             	mov    -0x28(%rbp),%eax
  80042008b6:	89 c2                	mov    %eax,%edx
  80042008b8:	ec                   	in     (%dx),%al
  80042008b9:	88 45 d7             	mov    %al,-0x29(%rbp)
	(void) inb(COM1+COM_IIR);
	(void) inb(COM1+COM_RX);

}
  80042008bc:	90                   	nop
  80042008bd:	c9                   	leaveq 
  80042008be:	c3                   	retq   

00000080042008bf <lpt_putc>:
// For information on PC parallel port programming, see the class References
// page.

static void
lpt_putc(int c)
{
  80042008bf:	55                   	push   %rbp
  80042008c0:	48 89 e5             	mov    %rsp,%rbp
  80042008c3:	48 83 ec 28          	sub    $0x28,%rsp
  80042008c7:	89 7d dc             	mov    %edi,-0x24(%rbp)
	int i;

	for (i = 0; !(inb(0x378+1) & 0x80) && i < 12800; i++)
  80042008ca:	c7 45 fc 00 00 00 00 	movl   $0x0,-0x4(%rbp)
  80042008d1:	eb 10                	jmp    80042008e3 <lpt_putc+0x24>
		delay();
  80042008d3:	48 b8 c5 06 20 04 80 	movabs $0x80042006c5,%rax
  80042008da:	00 00 00 
  80042008dd:	ff d0                	callq  *%rax
static void
lpt_putc(int c)
{
	int i;

	for (i = 0; !(inb(0x378+1) & 0x80) && i < 12800; i++)
  80042008df:	83 45 fc 01          	addl   $0x1,-0x4(%rbp)
  80042008e3:	c7 45 ec 79 03 00 00 	movl   $0x379,-0x14(%rbp)
  80042008ea:	8b 45 ec             	mov    -0x14(%rbp),%eax
  80042008ed:	89 c2                	mov    %eax,%edx
  80042008ef:	ec                   	in     (%dx),%al
  80042008f0:	88 45 eb             	mov    %al,-0x15(%rbp)
	return data;
  80042008f3:	0f b6 45 eb          	movzbl -0x15(%rbp),%eax
  80042008f7:	84 c0                	test   %al,%al
  80042008f9:	78 09                	js     8004200904 <lpt_putc+0x45>
  80042008fb:	81 7d fc ff 31 00 00 	cmpl   $0x31ff,-0x4(%rbp)
  8004200902:	7e cf                	jle    80042008d3 <lpt_putc+0x14>
		delay();
	outb(0x378+0, c);
  8004200904:	8b 45 dc             	mov    -0x24(%rbp),%eax
  8004200907:	0f b6 c0             	movzbl %al,%eax
  800420090a:	c7 45 f4 78 03 00 00 	movl   $0x378,-0xc(%rbp)
  8004200911:	88 45 e8             	mov    %al,-0x18(%rbp)
}

static __inline void
outb(int port, uint8_t data)
{
	__asm __volatile("outb %0,%w1" : : "a" (data), "d" (port));
  8004200914:	0f b6 45 e8          	movzbl -0x18(%rbp),%eax
  8004200918:	8b 55 f4             	mov    -0xc(%rbp),%edx
  800420091b:	ee                   	out    %al,(%dx)
  800420091c:	c7 45 f0 7a 03 00 00 	movl   $0x37a,-0x10(%rbp)
  8004200923:	c6 45 e9 0d          	movb   $0xd,-0x17(%rbp)
  8004200927:	0f b6 45 e9          	movzbl -0x17(%rbp),%eax
  800420092b:	8b 55 f0             	mov    -0x10(%rbp),%edx
  800420092e:	ee                   	out    %al,(%dx)
  800420092f:	c7 45 f8 7a 03 00 00 	movl   $0x37a,-0x8(%rbp)
  8004200936:	c6 45 ea 08          	movb   $0x8,-0x16(%rbp)
  800420093a:	0f b6 45 ea          	movzbl -0x16(%rbp),%eax
  800420093e:	8b 55 f8             	mov    -0x8(%rbp),%edx
  8004200941:	ee                   	out    %al,(%dx)
	outb(0x378+2, 0x08|0x04|0x01);
	outb(0x378+2, 0x08);
}
  8004200942:	90                   	nop
  8004200943:	c9                   	leaveq 
  8004200944:	c3                   	retq   

0000008004200945 <cga_init>:
static uint16_t *crt_buf;
static uint16_t crt_pos;

static void
cga_init(void)
{
  8004200945:	55                   	push   %rbp
  8004200946:	48 89 e5             	mov    %rsp,%rbp
  8004200949:	48 83 ec 30          	sub    $0x30,%rsp
	volatile uint16_t *cp;
	uint16_t was;
	unsigned pos;

	cp = (uint16_t*) (KERNBASE + CGA_BUF);
  800420094d:	48 b8 00 80 0b 04 80 	movabs $0x80040b8000,%rax
  8004200954:	00 00 00 
  8004200957:	48 89 45 f8          	mov    %rax,-0x8(%rbp)
	was = *cp;
  800420095b:	48 8b 45 f8          	mov    -0x8(%rbp),%rax
  800420095f:	0f b7 00             	movzwl (%rax),%eax
  8004200962:	66 89 45 f6          	mov    %ax,-0xa(%rbp)
	*cp = (uint16_t) 0xA55A;
  8004200966:	48 8b 45 f8          	mov    -0x8(%rbp),%rax
  800420096a:	66 c7 00 5a a5       	movw   $0xa55a,(%rax)
	if (*cp != 0xA55A) {
  800420096f:	48 8b 45 f8          	mov    -0x8(%rbp),%rax
  8004200973:	0f b7 00             	movzwl (%rax),%eax
  8004200976:	66 3d 5a a5          	cmp    $0xa55a,%ax
  800420097a:	74 20                	je     800420099c <cga_init+0x57>
		cp = (uint16_t*) (KERNBASE + MONO_BUF);
  800420097c:	48 b8 00 00 0b 04 80 	movabs $0x80040b0000,%rax
  8004200983:	00 00 00 
  8004200986:	48 89 45 f8          	mov    %rax,-0x8(%rbp)
		addr_6845 = MONO_BASE;
  800420098a:	48 b8 04 20 36 04 80 	movabs $0x8004362004,%rax
  8004200991:	00 00 00 
  8004200994:	c7 00 b4 03 00 00    	movl   $0x3b4,(%rax)
  800420099a:	eb 1b                	jmp    80042009b7 <cga_init+0x72>
	} else {
		*cp = was;
  800420099c:	48 8b 45 f8          	mov    -0x8(%rbp),%rax
  80042009a0:	0f b7 55 f6          	movzwl -0xa(%rbp),%edx
  80042009a4:	66 89 10             	mov    %dx,(%rax)
		addr_6845 = CGA_BASE;
  80042009a7:	48 b8 04 20 36 04 80 	movabs $0x8004362004,%rax
  80042009ae:	00 00 00 
  80042009b1:	c7 00 d4 03 00 00    	movl   $0x3d4,(%rax)
	}

	/* Extract cursor location */
	outb(addr_6845, 14);
  80042009b7:	48 b8 04 20 36 04 80 	movabs $0x8004362004,%rax
  80042009be:	00 00 00 
  80042009c1:	8b 00                	mov    (%rax),%eax
  80042009c3:	89 45 f0             	mov    %eax,-0x10(%rbp)
  80042009c6:	c6 45 dc 0e          	movb   $0xe,-0x24(%rbp)
  80042009ca:	0f b6 45 dc          	movzbl -0x24(%rbp),%eax
  80042009ce:	8b 55 f0             	mov    -0x10(%rbp),%edx
  80042009d1:	ee                   	out    %al,(%dx)
	pos = inb(addr_6845 + 1) << 8;
  80042009d2:	48 b8 04 20 36 04 80 	movabs $0x8004362004,%rax
  80042009d9:	00 00 00 
  80042009dc:	8b 00                	mov    (%rax),%eax
  80042009de:	83 c0 01             	add    $0x1,%eax
  80042009e1:	89 45 e8             	mov    %eax,-0x18(%rbp)

static __inline uint8_t
inb(int port)
{
	uint8_t data;
	__asm __volatile("inb %w1,%0" : "=a" (data) : "d" (port));
  80042009e4:	8b 45 e8             	mov    -0x18(%rbp),%eax
  80042009e7:	89 c2                	mov    %eax,%edx
  80042009e9:	ec                   	in     (%dx),%al
  80042009ea:	88 45 dd             	mov    %al,-0x23(%rbp)
	return data;
  80042009ed:	0f b6 45 dd          	movzbl -0x23(%rbp),%eax
  80042009f1:	0f b6 c0             	movzbl %al,%eax
  80042009f4:	c1 e0 08             	shl    $0x8,%eax
  80042009f7:	89 45 ec             	mov    %eax,-0x14(%rbp)
	outb(addr_6845, 15);
  80042009fa:	48 b8 04 20 36 04 80 	movabs $0x8004362004,%rax
  8004200a01:	00 00 00 
  8004200a04:	8b 00                	mov    (%rax),%eax
  8004200a06:	89 45 e4             	mov    %eax,-0x1c(%rbp)
  8004200a09:	c6 45 de 0f          	movb   $0xf,-0x22(%rbp)
}

static __inline void
outb(int port, uint8_t data)
{
	__asm __volatile("outb %0,%w1" : : "a" (data), "d" (port));
  8004200a0d:	0f b6 45 de          	movzbl -0x22(%rbp),%eax
  8004200a11:	8b 55 e4             	mov    -0x1c(%rbp),%edx
  8004200a14:	ee                   	out    %al,(%dx)
	pos |= inb(addr_6845 + 1);
  8004200a15:	48 b8 04 20 36 04 80 	movabs $0x8004362004,%rax
  8004200a1c:	00 00 00 
  8004200a1f:	8b 00                	mov    (%rax),%eax
  8004200a21:	83 c0 01             	add    $0x1,%eax
  8004200a24:	89 45 e0             	mov    %eax,-0x20(%rbp)

static __inline uint8_t
inb(int port)
{
	uint8_t data;
	__asm __volatile("inb %w1,%0" : "=a" (data) : "d" (port));
  8004200a27:	8b 45 e0             	mov    -0x20(%rbp),%eax
  8004200a2a:	89 c2                	mov    %eax,%edx
  8004200a2c:	ec                   	in     (%dx),%al
  8004200a2d:	88 45 df             	mov    %al,-0x21(%rbp)
	return data;
  8004200a30:	0f b6 45 df          	movzbl -0x21(%rbp),%eax
  8004200a34:	0f b6 c0             	movzbl %al,%eax
  8004200a37:	09 45 ec             	or     %eax,-0x14(%rbp)

	crt_buf = (uint16_t*) cp;
  8004200a3a:	48 b8 08 20 36 04 80 	movabs $0x8004362008,%rax
  8004200a41:	00 00 00 
  8004200a44:	48 8b 55 f8          	mov    -0x8(%rbp),%rdx
  8004200a48:	48 89 10             	mov    %rdx,(%rax)
	crt_pos = pos;
  8004200a4b:	8b 45 ec             	mov    -0x14(%rbp),%eax
  8004200a4e:	89 c2                	mov    %eax,%edx
  8004200a50:	48 b8 10 20 36 04 80 	movabs $0x8004362010,%rax
  8004200a57:	00 00 00 
  8004200a5a:	66 89 10             	mov    %dx,(%rax)
}
  8004200a5d:	90                   	nop
  8004200a5e:	c9                   	leaveq 
  8004200a5f:	c3                   	retq   

0000008004200a60 <cga_putc>:



static void
cga_putc(int c)
{
  8004200a60:	55                   	push   %rbp
  8004200a61:	48 89 e5             	mov    %rsp,%rbp
  8004200a64:	48 83 ec 30          	sub    $0x30,%rsp
  8004200a68:	89 7d dc             	mov    %edi,-0x24(%rbp)
	// if no attribute given, then use black on white
	if (!(c & ~0xFF))
  8004200a6b:	8b 45 dc             	mov    -0x24(%rbp),%eax
  8004200a6e:	b0 00                	mov    $0x0,%al
  8004200a70:	85 c0                	test   %eax,%eax
  8004200a72:	75 07                	jne    8004200a7b <cga_putc+0x1b>
		c |= 0x0700;
  8004200a74:	81 4d dc 00 07 00 00 	orl    $0x700,-0x24(%rbp)

	switch (c & 0xff) {
  8004200a7b:	8b 45 dc             	mov    -0x24(%rbp),%eax
  8004200a7e:	0f b6 c0             	movzbl %al,%eax
  8004200a81:	83 f8 09             	cmp    $0x9,%eax
  8004200a84:	0f 84 f5 00 00 00    	je     8004200b7f <cga_putc+0x11f>
  8004200a8a:	83 f8 09             	cmp    $0x9,%eax
  8004200a8d:	7f 0a                	jg     8004200a99 <cga_putc+0x39>
  8004200a8f:	83 f8 08             	cmp    $0x8,%eax
  8004200a92:	74 18                	je     8004200aac <cga_putc+0x4c>
  8004200a94:	e9 3d 01 00 00       	jmpq   8004200bd6 <cga_putc+0x176>
  8004200a99:	83 f8 0a             	cmp    $0xa,%eax
  8004200a9c:	74 74                	je     8004200b12 <cga_putc+0xb2>
  8004200a9e:	83 f8 0d             	cmp    $0xd,%eax
  8004200aa1:	0f 84 88 00 00 00    	je     8004200b2f <cga_putc+0xcf>
  8004200aa7:	e9 2a 01 00 00       	jmpq   8004200bd6 <cga_putc+0x176>
	case '\b':
		if (crt_pos > 0) {
  8004200aac:	48 b8 10 20 36 04 80 	movabs $0x8004362010,%rax
  8004200ab3:	00 00 00 
  8004200ab6:	0f b7 00             	movzwl (%rax),%eax
  8004200ab9:	66 85 c0             	test   %ax,%ax
  8004200abc:	0f 84 4f 01 00 00    	je     8004200c11 <cga_putc+0x1b1>
			crt_pos--;
  8004200ac2:	48 b8 10 20 36 04 80 	movabs $0x8004362010,%rax
  8004200ac9:	00 00 00 
  8004200acc:	0f b7 00             	movzwl (%rax),%eax
  8004200acf:	8d 50 ff             	lea    -0x1(%rax),%edx
  8004200ad2:	48 b8 10 20 36 04 80 	movabs $0x8004362010,%rax
  8004200ad9:	00 00 00 
  8004200adc:	66 89 10             	mov    %dx,(%rax)
			crt_buf[crt_pos] = (c & ~0xff) | ' ';
  8004200adf:	48 b8 08 20 36 04 80 	movabs $0x8004362008,%rax
  8004200ae6:	00 00 00 
  8004200ae9:	48 8b 10             	mov    (%rax),%rdx
  8004200aec:	48 b8 10 20 36 04 80 	movabs $0x8004362010,%rax
  8004200af3:	00 00 00 
  8004200af6:	0f b7 00             	movzwl (%rax),%eax
  8004200af9:	0f b7 c0             	movzwl %ax,%eax
  8004200afc:	48 01 c0             	add    %rax,%rax
  8004200aff:	48 01 d0             	add    %rdx,%rax
  8004200b02:	8b 55 dc             	mov    -0x24(%rbp),%edx
  8004200b05:	b2 00                	mov    $0x0,%dl
  8004200b07:	83 ca 20             	or     $0x20,%edx
  8004200b0a:	66 89 10             	mov    %dx,(%rax)
		}
		break;
  8004200b0d:	e9 ff 00 00 00       	jmpq   8004200c11 <cga_putc+0x1b1>
	case '\n':
		crt_pos += CRT_COLS;
  8004200b12:	48 b8 10 20 36 04 80 	movabs $0x8004362010,%rax
  8004200b19:	00 00 00 
  8004200b1c:	0f b7 00             	movzwl (%rax),%eax
  8004200b1f:	8d 50 50             	lea    0x50(%rax),%edx
  8004200b22:	48 b8 10 20 36 04 80 	movabs $0x8004362010,%rax
  8004200b29:	00 00 00 
  8004200b2c:	66 89 10             	mov    %dx,(%rax)
		/* fallthru */
	case '\r':
		crt_pos -= (crt_pos % CRT_COLS);
  8004200b2f:	48 b8 10 20 36 04 80 	movabs $0x8004362010,%rax
  8004200b36:	00 00 00 
  8004200b39:	0f b7 30             	movzwl (%rax),%esi
  8004200b3c:	48 b8 10 20 36 04 80 	movabs $0x8004362010,%rax
  8004200b43:	00 00 00 
  8004200b46:	0f b7 08             	movzwl (%rax),%ecx
  8004200b49:	0f b7 c1             	movzwl %cx,%eax
  8004200b4c:	69 c0 cd cc 00 00    	imul   $0xcccd,%eax,%eax
  8004200b52:	c1 e8 10             	shr    $0x10,%eax
  8004200b55:	89 c2                	mov    %eax,%edx
  8004200b57:	66 c1 ea 06          	shr    $0x6,%dx
  8004200b5b:	89 d0                	mov    %edx,%eax
  8004200b5d:	c1 e0 02             	shl    $0x2,%eax
  8004200b60:	01 d0                	add    %edx,%eax
  8004200b62:	c1 e0 04             	shl    $0x4,%eax
  8004200b65:	29 c1                	sub    %eax,%ecx
  8004200b67:	89 ca                	mov    %ecx,%edx
  8004200b69:	29 d6                	sub    %edx,%esi
  8004200b6b:	89 f2                	mov    %esi,%edx
  8004200b6d:	48 b8 10 20 36 04 80 	movabs $0x8004362010,%rax
  8004200b74:	00 00 00 
  8004200b77:	66 89 10             	mov    %dx,(%rax)
		break;
  8004200b7a:	e9 93 00 00 00       	jmpq   8004200c12 <cga_putc+0x1b2>
	case '\t':
		cons_putc(' ');
  8004200b7f:	bf 20 00 00 00       	mov    $0x20,%edi
  8004200b84:	48 b8 08 11 20 04 80 	movabs $0x8004201108,%rax
  8004200b8b:	00 00 00 
  8004200b8e:	ff d0                	callq  *%rax
		cons_putc(' ');
  8004200b90:	bf 20 00 00 00       	mov    $0x20,%edi
  8004200b95:	48 b8 08 11 20 04 80 	movabs $0x8004201108,%rax
  8004200b9c:	00 00 00 
  8004200b9f:	ff d0                	callq  *%rax
		cons_putc(' ');
  8004200ba1:	bf 20 00 00 00       	mov    $0x20,%edi
  8004200ba6:	48 b8 08 11 20 04 80 	movabs $0x8004201108,%rax
  8004200bad:	00 00 00 
  8004200bb0:	ff d0                	callq  *%rax
		cons_putc(' ');
  8004200bb2:	bf 20 00 00 00       	mov    $0x20,%edi
  8004200bb7:	48 b8 08 11 20 04 80 	movabs $0x8004201108,%rax
  8004200bbe:	00 00 00 
  8004200bc1:	ff d0                	callq  *%rax
		cons_putc(' ');
  8004200bc3:	bf 20 00 00 00       	mov    $0x20,%edi
  8004200bc8:	48 b8 08 11 20 04 80 	movabs $0x8004201108,%rax
  8004200bcf:	00 00 00 
  8004200bd2:	ff d0                	callq  *%rax
		break;
  8004200bd4:	eb 3c                	jmp    8004200c12 <cga_putc+0x1b2>
	default:
		crt_buf[crt_pos++] = c;		/* write the character */
  8004200bd6:	48 b8 08 20 36 04 80 	movabs $0x8004362008,%rax
  8004200bdd:	00 00 00 
  8004200be0:	48 8b 30             	mov    (%rax),%rsi
  8004200be3:	48 b8 10 20 36 04 80 	movabs $0x8004362010,%rax
  8004200bea:	00 00 00 
  8004200bed:	0f b7 00             	movzwl (%rax),%eax
  8004200bf0:	8d 48 01             	lea    0x1(%rax),%ecx
  8004200bf3:	48 ba 10 20 36 04 80 	movabs $0x8004362010,%rdx
  8004200bfa:	00 00 00 
  8004200bfd:	66 89 0a             	mov    %cx,(%rdx)
  8004200c00:	0f b7 c0             	movzwl %ax,%eax
  8004200c03:	48 01 c0             	add    %rax,%rax
  8004200c06:	48 01 f0             	add    %rsi,%rax
  8004200c09:	8b 55 dc             	mov    -0x24(%rbp),%edx
  8004200c0c:	66 89 10             	mov    %dx,(%rax)
		break;
  8004200c0f:	eb 01                	jmp    8004200c12 <cga_putc+0x1b2>
	case '\b':
		if (crt_pos > 0) {
			crt_pos--;
			crt_buf[crt_pos] = (c & ~0xff) | ' ';
		}
		break;
  8004200c11:	90                   	nop
		crt_buf[crt_pos++] = c;		/* write the character */
		break;
	}

	// What is the purpose of this?
	if (crt_pos >= CRT_SIZE) {
  8004200c12:	48 b8 10 20 36 04 80 	movabs $0x8004362010,%rax
  8004200c19:	00 00 00 
  8004200c1c:	0f b7 00             	movzwl (%rax),%eax
  8004200c1f:	66 3d cf 07          	cmp    $0x7cf,%ax
  8004200c23:	0f 86 89 00 00 00    	jbe    8004200cb2 <cga_putc+0x252>
		int i;

		memmove(crt_buf, crt_buf + CRT_COLS, (CRT_SIZE - CRT_COLS) * sizeof(uint16_t));
  8004200c29:	48 b8 08 20 36 04 80 	movabs $0x8004362008,%rax
  8004200c30:	00 00 00 
  8004200c33:	48 8b 00             	mov    (%rax),%rax
  8004200c36:	48 8d 88 a0 00 00 00 	lea    0xa0(%rax),%rcx
  8004200c3d:	48 b8 08 20 36 04 80 	movabs $0x8004362008,%rax
  8004200c44:	00 00 00 
  8004200c47:	48 8b 00             	mov    (%rax),%rax
  8004200c4a:	ba 00 0f 00 00       	mov    $0xf00,%edx
  8004200c4f:	48 89 ce             	mov    %rcx,%rsi
  8004200c52:	48 89 c7             	mov    %rax,%rdi
  8004200c55:	48 b8 02 ed 20 04 80 	movabs $0x800420ed02,%rax
  8004200c5c:	00 00 00 
  8004200c5f:	ff d0                	callq  *%rax
		for (i = CRT_SIZE - CRT_COLS; i < CRT_SIZE; i++)
  8004200c61:	c7 45 fc 80 07 00 00 	movl   $0x780,-0x4(%rbp)
  8004200c68:	eb 22                	jmp    8004200c8c <cga_putc+0x22c>
			crt_buf[i] = 0x0700 | ' ';
  8004200c6a:	48 b8 08 20 36 04 80 	movabs $0x8004362008,%rax
  8004200c71:	00 00 00 
  8004200c74:	48 8b 00             	mov    (%rax),%rax
  8004200c77:	8b 55 fc             	mov    -0x4(%rbp),%edx
  8004200c7a:	48 63 d2             	movslq %edx,%rdx
  8004200c7d:	48 01 d2             	add    %rdx,%rdx
  8004200c80:	48 01 d0             	add    %rdx,%rax
  8004200c83:	66 c7 00 20 07       	movw   $0x720,(%rax)
	// What is the purpose of this?
	if (crt_pos >= CRT_SIZE) {
		int i;

		memmove(crt_buf, crt_buf + CRT_COLS, (CRT_SIZE - CRT_COLS) * sizeof(uint16_t));
		for (i = CRT_SIZE - CRT_COLS; i < CRT_SIZE; i++)
  8004200c88:	83 45 fc 01          	addl   $0x1,-0x4(%rbp)
  8004200c8c:	81 7d fc cf 07 00 00 	cmpl   $0x7cf,-0x4(%rbp)
  8004200c93:	7e d5                	jle    8004200c6a <cga_putc+0x20a>
			crt_buf[i] = 0x0700 | ' ';
		crt_pos -= CRT_COLS;
  8004200c95:	48 b8 10 20 36 04 80 	movabs $0x8004362010,%rax
  8004200c9c:	00 00 00 
  8004200c9f:	0f b7 00             	movzwl (%rax),%eax
  8004200ca2:	8d 50 b0             	lea    -0x50(%rax),%edx
  8004200ca5:	48 b8 10 20 36 04 80 	movabs $0x8004362010,%rax
  8004200cac:	00 00 00 
  8004200caf:	66 89 10             	mov    %dx,(%rax)
	}

	/* move that little blinky thing */
	outb(addr_6845, 14);
  8004200cb2:	48 b8 04 20 36 04 80 	movabs $0x8004362004,%rax
  8004200cb9:	00 00 00 
  8004200cbc:	8b 00                	mov    (%rax),%eax
  8004200cbe:	89 45 f8             	mov    %eax,-0x8(%rbp)
  8004200cc1:	c6 45 e8 0e          	movb   $0xe,-0x18(%rbp)
}

static __inline void
outb(int port, uint8_t data)
{
	__asm __volatile("outb %0,%w1" : : "a" (data), "d" (port));
  8004200cc5:	0f b6 45 e8          	movzbl -0x18(%rbp),%eax
  8004200cc9:	8b 55 f8             	mov    -0x8(%rbp),%edx
  8004200ccc:	ee                   	out    %al,(%dx)
	outb(addr_6845 + 1, crt_pos >> 8);
  8004200ccd:	48 b8 10 20 36 04 80 	movabs $0x8004362010,%rax
  8004200cd4:	00 00 00 
  8004200cd7:	0f b7 00             	movzwl (%rax),%eax
  8004200cda:	66 c1 e8 08          	shr    $0x8,%ax
  8004200cde:	0f b6 c0             	movzbl %al,%eax
  8004200ce1:	48 ba 04 20 36 04 80 	movabs $0x8004362004,%rdx
  8004200ce8:	00 00 00 
  8004200ceb:	8b 12                	mov    (%rdx),%edx
  8004200ced:	83 c2 01             	add    $0x1,%edx
  8004200cf0:	89 55 f4             	mov    %edx,-0xc(%rbp)
  8004200cf3:	88 45 e9             	mov    %al,-0x17(%rbp)
  8004200cf6:	0f b6 45 e9          	movzbl -0x17(%rbp),%eax
  8004200cfa:	8b 55 f4             	mov    -0xc(%rbp),%edx
  8004200cfd:	ee                   	out    %al,(%dx)
	outb(addr_6845, 15);
  8004200cfe:	48 b8 04 20 36 04 80 	movabs $0x8004362004,%rax
  8004200d05:	00 00 00 
  8004200d08:	8b 00                	mov    (%rax),%eax
  8004200d0a:	89 45 f0             	mov    %eax,-0x10(%rbp)
  8004200d0d:	c6 45 ea 0f          	movb   $0xf,-0x16(%rbp)
  8004200d11:	0f b6 45 ea          	movzbl -0x16(%rbp),%eax
  8004200d15:	8b 55 f0             	mov    -0x10(%rbp),%edx
  8004200d18:	ee                   	out    %al,(%dx)
	outb(addr_6845 + 1, crt_pos);
  8004200d19:	48 b8 10 20 36 04 80 	movabs $0x8004362010,%rax
  8004200d20:	00 00 00 
  8004200d23:	0f b7 00             	movzwl (%rax),%eax
  8004200d26:	0f b6 c0             	movzbl %al,%eax
  8004200d29:	48 ba 04 20 36 04 80 	movabs $0x8004362004,%rdx
  8004200d30:	00 00 00 
  8004200d33:	8b 12                	mov    (%rdx),%edx
  8004200d35:	83 c2 01             	add    $0x1,%edx
  8004200d38:	89 55 ec             	mov    %edx,-0x14(%rbp)
  8004200d3b:	88 45 eb             	mov    %al,-0x15(%rbp)
  8004200d3e:	0f b6 45 eb          	movzbl -0x15(%rbp),%eax
  8004200d42:	8b 55 ec             	mov    -0x14(%rbp),%edx
  8004200d45:	ee                   	out    %al,(%dx)
}
  8004200d46:	90                   	nop
  8004200d47:	c9                   	leaveq 
  8004200d48:	c3                   	retq   

0000008004200d49 <kbd_proc_data>:
 * Get data from the keyboard.  If we finish a character, return it.  Else 0.
 * Return -1 if no data.
 */
static int
kbd_proc_data(void)
{
  8004200d49:	55                   	push   %rbp
  8004200d4a:	48 89 e5             	mov    %rsp,%rbp
  8004200d4d:	48 83 ec 20          	sub    $0x20,%rsp
  8004200d51:	c7 45 ec 64 00 00 00 	movl   $0x64,-0x14(%rbp)

static __inline uint8_t
inb(int port)
{
	uint8_t data;
	__asm __volatile("inb %w1,%0" : "=a" (data) : "d" (port));
  8004200d58:	8b 45 ec             	mov    -0x14(%rbp),%eax
  8004200d5b:	89 c2                	mov    %eax,%edx
  8004200d5d:	ec                   	in     (%dx),%al
  8004200d5e:	88 45 eb             	mov    %al,-0x15(%rbp)
	return data;
  8004200d61:	0f b6 45 eb          	movzbl -0x15(%rbp),%eax
	int c;
	uint8_t data;
	static uint32_t shift;
	int r;
	if ((inb(KBSTATP) & KBS_DIB) == 0)
  8004200d65:	0f b6 c0             	movzbl %al,%eax
  8004200d68:	83 e0 01             	and    $0x1,%eax
  8004200d6b:	85 c0                	test   %eax,%eax
  8004200d6d:	75 0a                	jne    8004200d79 <kbd_proc_data+0x30>
		return -1;
  8004200d6f:	b8 ff ff ff ff       	mov    $0xffffffff,%eax
  8004200d74:	e9 fc 01 00 00       	jmpq   8004200f75 <kbd_proc_data+0x22c>
  8004200d79:	c7 45 f4 60 00 00 00 	movl   $0x60,-0xc(%rbp)

static __inline uint8_t
inb(int port)
{
	uint8_t data;
	__asm __volatile("inb %w1,%0" : "=a" (data) : "d" (port));
  8004200d80:	8b 45 f4             	mov    -0xc(%rbp),%eax
  8004200d83:	89 c2                	mov    %eax,%edx
  8004200d85:	ec                   	in     (%dx),%al
  8004200d86:	88 45 ea             	mov    %al,-0x16(%rbp)
	return data;
  8004200d89:	0f b6 45 ea          	movzbl -0x16(%rbp),%eax

	data = inb(KBDATAP);
  8004200d8d:	88 45 fb             	mov    %al,-0x5(%rbp)

	if (data == 0xE0) {
  8004200d90:	80 7d fb e0          	cmpb   $0xe0,-0x5(%rbp)
  8004200d94:	75 27                	jne    8004200dbd <kbd_proc_data+0x74>
		// E0 escape character
		shift |= E0ESC;
  8004200d96:	48 b8 28 22 36 04 80 	movabs $0x8004362228,%rax
  8004200d9d:	00 00 00 
  8004200da0:	8b 00                	mov    (%rax),%eax
  8004200da2:	83 c8 40             	or     $0x40,%eax
  8004200da5:	89 c2                	mov    %eax,%edx
  8004200da7:	48 b8 28 22 36 04 80 	movabs $0x8004362228,%rax
  8004200dae:	00 00 00 
  8004200db1:	89 10                	mov    %edx,(%rax)
		return 0;
  8004200db3:	b8 00 00 00 00       	mov    $0x0,%eax
  8004200db8:	e9 b8 01 00 00       	jmpq   8004200f75 <kbd_proc_data+0x22c>
	} else if (data & 0x80) {
  8004200dbd:	0f b6 45 fb          	movzbl -0x5(%rbp),%eax
  8004200dc1:	84 c0                	test   %al,%al
  8004200dc3:	79 65                	jns    8004200e2a <kbd_proc_data+0xe1>
		// Key released
		data = (shift & E0ESC ? data : data & 0x7F);
  8004200dc5:	48 b8 28 22 36 04 80 	movabs $0x8004362228,%rax
  8004200dcc:	00 00 00 
  8004200dcf:	8b 00                	mov    (%rax),%eax
  8004200dd1:	83 e0 40             	and    $0x40,%eax
  8004200dd4:	85 c0                	test   %eax,%eax
  8004200dd6:	75 09                	jne    8004200de1 <kbd_proc_data+0x98>
  8004200dd8:	0f b6 45 fb          	movzbl -0x5(%rbp),%eax
  8004200ddc:	83 e0 7f             	and    $0x7f,%eax
  8004200ddf:	eb 04                	jmp    8004200de5 <kbd_proc_data+0x9c>
  8004200de1:	0f b6 45 fb          	movzbl -0x5(%rbp),%eax
  8004200de5:	88 45 fb             	mov    %al,-0x5(%rbp)
		shift &= ~(shiftcode[data] | E0ESC);
  8004200de8:	0f b6 45 fb          	movzbl -0x5(%rbp),%eax
  8004200dec:	48 ba 60 b0 22 04 80 	movabs $0x800422b060,%rdx
  8004200df3:	00 00 00 
  8004200df6:	48 98                	cltq   
  8004200df8:	0f b6 04 02          	movzbl (%rdx,%rax,1),%eax
  8004200dfc:	83 c8 40             	or     $0x40,%eax
  8004200dff:	0f b6 c0             	movzbl %al,%eax
  8004200e02:	f7 d0                	not    %eax
  8004200e04:	89 c2                	mov    %eax,%edx
  8004200e06:	48 b8 28 22 36 04 80 	movabs $0x8004362228,%rax
  8004200e0d:	00 00 00 
  8004200e10:	8b 00                	mov    (%rax),%eax
  8004200e12:	21 c2                	and    %eax,%edx
  8004200e14:	48 b8 28 22 36 04 80 	movabs $0x8004362228,%rax
  8004200e1b:	00 00 00 
  8004200e1e:	89 10                	mov    %edx,(%rax)
		return 0;
  8004200e20:	b8 00 00 00 00       	mov    $0x0,%eax
  8004200e25:	e9 4b 01 00 00       	jmpq   8004200f75 <kbd_proc_data+0x22c>
	} else if (shift & E0ESC) {
  8004200e2a:	48 b8 28 22 36 04 80 	movabs $0x8004362228,%rax
  8004200e31:	00 00 00 
  8004200e34:	8b 00                	mov    (%rax),%eax
  8004200e36:	83 e0 40             	and    $0x40,%eax
  8004200e39:	85 c0                	test   %eax,%eax
  8004200e3b:	74 21                	je     8004200e5e <kbd_proc_data+0x115>
		// Last character was an E0 escape; or with 0x80
		data |= 0x80;
  8004200e3d:	80 4d fb 80          	orb    $0x80,-0x5(%rbp)
		shift &= ~E0ESC;
  8004200e41:	48 b8 28 22 36 04 80 	movabs $0x8004362228,%rax
  8004200e48:	00 00 00 
  8004200e4b:	8b 00                	mov    (%rax),%eax
  8004200e4d:	83 e0 bf             	and    $0xffffffbf,%eax
  8004200e50:	89 c2                	mov    %eax,%edx
  8004200e52:	48 b8 28 22 36 04 80 	movabs $0x8004362228,%rax
  8004200e59:	00 00 00 
  8004200e5c:	89 10                	mov    %edx,(%rax)
	}

	shift |= shiftcode[data];
  8004200e5e:	0f b6 45 fb          	movzbl -0x5(%rbp),%eax
  8004200e62:	48 ba 60 b0 22 04 80 	movabs $0x800422b060,%rdx
  8004200e69:	00 00 00 
  8004200e6c:	48 98                	cltq   
  8004200e6e:	0f b6 04 02          	movzbl (%rdx,%rax,1),%eax
  8004200e72:	0f b6 d0             	movzbl %al,%edx
  8004200e75:	48 b8 28 22 36 04 80 	movabs $0x8004362228,%rax
  8004200e7c:	00 00 00 
  8004200e7f:	8b 00                	mov    (%rax),%eax
  8004200e81:	09 c2                	or     %eax,%edx
  8004200e83:	48 b8 28 22 36 04 80 	movabs $0x8004362228,%rax
  8004200e8a:	00 00 00 
  8004200e8d:	89 10                	mov    %edx,(%rax)
	shift ^= togglecode[data];
  8004200e8f:	0f b6 45 fb          	movzbl -0x5(%rbp),%eax
  8004200e93:	48 ba 60 b1 22 04 80 	movabs $0x800422b160,%rdx
  8004200e9a:	00 00 00 
  8004200e9d:	48 98                	cltq   
  8004200e9f:	0f b6 04 02          	movzbl (%rdx,%rax,1),%eax
  8004200ea3:	0f b6 d0             	movzbl %al,%edx
  8004200ea6:	48 b8 28 22 36 04 80 	movabs $0x8004362228,%rax
  8004200ead:	00 00 00 
  8004200eb0:	8b 00                	mov    (%rax),%eax
  8004200eb2:	31 c2                	xor    %eax,%edx
  8004200eb4:	48 b8 28 22 36 04 80 	movabs $0x8004362228,%rax
  8004200ebb:	00 00 00 
  8004200ebe:	89 10                	mov    %edx,(%rax)

	c = charcode[shift & (CTL | SHIFT)][data];
  8004200ec0:	48 b8 28 22 36 04 80 	movabs $0x8004362228,%rax
  8004200ec7:	00 00 00 
  8004200eca:	8b 00                	mov    (%rax),%eax
  8004200ecc:	83 e0 03             	and    $0x3,%eax
  8004200ecf:	89 c2                	mov    %eax,%edx
  8004200ed1:	48 b8 60 b5 22 04 80 	movabs $0x800422b560,%rax
  8004200ed8:	00 00 00 
  8004200edb:	89 d2                	mov    %edx,%edx
  8004200edd:	48 8b 14 d0          	mov    (%rax,%rdx,8),%rdx
  8004200ee1:	0f b6 45 fb          	movzbl -0x5(%rbp),%eax
  8004200ee5:	48 01 d0             	add    %rdx,%rax
  8004200ee8:	0f b6 00             	movzbl (%rax),%eax
  8004200eeb:	0f b6 c0             	movzbl %al,%eax
  8004200eee:	89 45 fc             	mov    %eax,-0x4(%rbp)
	if (shift & CAPSLOCK) {
  8004200ef1:	48 b8 28 22 36 04 80 	movabs $0x8004362228,%rax
  8004200ef8:	00 00 00 
  8004200efb:	8b 00                	mov    (%rax),%eax
  8004200efd:	83 e0 08             	and    $0x8,%eax
  8004200f00:	85 c0                	test   %eax,%eax
  8004200f02:	74 22                	je     8004200f26 <kbd_proc_data+0x1dd>
		if ('a' <= c && c <= 'z')
  8004200f04:	83 7d fc 60          	cmpl   $0x60,-0x4(%rbp)
  8004200f08:	7e 0c                	jle    8004200f16 <kbd_proc_data+0x1cd>
  8004200f0a:	83 7d fc 7a          	cmpl   $0x7a,-0x4(%rbp)
  8004200f0e:	7f 06                	jg     8004200f16 <kbd_proc_data+0x1cd>
			c += 'A' - 'a';
  8004200f10:	83 6d fc 20          	subl   $0x20,-0x4(%rbp)
  8004200f14:	eb 10                	jmp    8004200f26 <kbd_proc_data+0x1dd>
		else if ('A' <= c && c <= 'Z')
  8004200f16:	83 7d fc 40          	cmpl   $0x40,-0x4(%rbp)
  8004200f1a:	7e 0a                	jle    8004200f26 <kbd_proc_data+0x1dd>
  8004200f1c:	83 7d fc 5a          	cmpl   $0x5a,-0x4(%rbp)
  8004200f20:	7f 04                	jg     8004200f26 <kbd_proc_data+0x1dd>
			c += 'a' - 'A';
  8004200f22:	83 45 fc 20          	addl   $0x20,-0x4(%rbp)
	}

	// Process special keys
	// Ctrl-Alt-Del: reboot
	if (!(~shift & (CTL | ALT)) && c == KEY_DEL) {
  8004200f26:	48 b8 28 22 36 04 80 	movabs $0x8004362228,%rax
  8004200f2d:	00 00 00 
  8004200f30:	8b 00                	mov    (%rax),%eax
  8004200f32:	f7 d0                	not    %eax
  8004200f34:	83 e0 06             	and    $0x6,%eax
  8004200f37:	85 c0                	test   %eax,%eax
  8004200f39:	75 37                	jne    8004200f72 <kbd_proc_data+0x229>
  8004200f3b:	81 7d fc e9 00 00 00 	cmpl   $0xe9,-0x4(%rbp)
  8004200f42:	75 2e                	jne    8004200f72 <kbd_proc_data+0x229>
		cprintf("Rebooting!\n");
  8004200f44:	48 bf 0e 63 21 04 80 	movabs $0x800421630e,%rdi
  8004200f4b:	00 00 00 
  8004200f4e:	b8 00 00 00 00       	mov    $0x0,%eax
  8004200f53:	48 ba 0a 8e 20 04 80 	movabs $0x8004208e0a,%rdx
  8004200f5a:	00 00 00 
  8004200f5d:	ff d2                	callq  *%rdx
  8004200f5f:	c7 45 f0 92 00 00 00 	movl   $0x92,-0x10(%rbp)
  8004200f66:	c6 45 e9 03          	movb   $0x3,-0x17(%rbp)
}

static __inline void
outb(int port, uint8_t data)
{
	__asm __volatile("outb %0,%w1" : : "a" (data), "d" (port));
  8004200f6a:	0f b6 45 e9          	movzbl -0x17(%rbp),%eax
  8004200f6e:	8b 55 f0             	mov    -0x10(%rbp),%edx
  8004200f71:	ee                   	out    %al,(%dx)
		outb(0x92, 0x3); // courtesy of Chris Frost
	}
	return c;
  8004200f72:	8b 45 fc             	mov    -0x4(%rbp),%eax
}
  8004200f75:	c9                   	leaveq 
  8004200f76:	c3                   	retq   

0000008004200f77 <kbd_intr>:

void
kbd_intr(void)
{
  8004200f77:	55                   	push   %rbp
  8004200f78:	48 89 e5             	mov    %rsp,%rbp
	cons_intr(kbd_proc_data);
  8004200f7b:	48 bf 49 0d 20 04 80 	movabs $0x8004200d49,%rdi
  8004200f82:	00 00 00 
  8004200f85:	48 b8 ca 0f 20 04 80 	movabs $0x8004200fca,%rax
  8004200f8c:	00 00 00 
  8004200f8f:	ff d0                	callq  *%rax
}
  8004200f91:	90                   	nop
  8004200f92:	5d                   	pop    %rbp
  8004200f93:	c3                   	retq   

0000008004200f94 <kbd_init>:

static void
kbd_init(void)
{
  8004200f94:	55                   	push   %rbp
  8004200f95:	48 89 e5             	mov    %rsp,%rbp
	// Drain the kbd buffer so that Bochs generates interrupts.
	kbd_intr();
  8004200f98:	48 b8 77 0f 20 04 80 	movabs $0x8004200f77,%rax
  8004200f9f:	00 00 00 
  8004200fa2:	ff d0                	callq  *%rax
	irq_setmask_8259A(irq_mask_8259A & ~(1<<1));
  8004200fa4:	48 b8 92 b6 22 04 80 	movabs $0x800422b692,%rax
  8004200fab:	00 00 00 
  8004200fae:	0f b7 00             	movzwl (%rax),%eax
  8004200fb1:	0f b7 c0             	movzwl %ax,%eax
  8004200fb4:	25 fd ff 00 00       	and    $0xfffd,%eax
  8004200fb9:	89 c7                	mov    %eax,%edi
  8004200fbb:	48 b8 89 8c 20 04 80 	movabs $0x8004208c89,%rax
  8004200fc2:	00 00 00 
  8004200fc5:	ff d0                	callq  *%rax
}
  8004200fc7:	90                   	nop
  8004200fc8:	5d                   	pop    %rbp
  8004200fc9:	c3                   	retq   

0000008004200fca <cons_intr>:

// called by device interrupt routines to feed input characters
// into the circular console input buffer.
static void
cons_intr(int (*proc)(void))
{
  8004200fca:	55                   	push   %rbp
  8004200fcb:	48 89 e5             	mov    %rsp,%rbp
  8004200fce:	48 83 ec 20          	sub    $0x20,%rsp
  8004200fd2:	48 89 7d e8          	mov    %rdi,-0x18(%rbp)
	int c;

	while ((c = (*proc)()) != -1) {
  8004200fd6:	eb 6a                	jmp    8004201042 <cons_intr+0x78>
		if (c == 0)
  8004200fd8:	83 7d fc 00          	cmpl   $0x0,-0x4(%rbp)
  8004200fdc:	75 02                	jne    8004200fe0 <cons_intr+0x16>
			continue;
  8004200fde:	eb 62                	jmp    8004201042 <cons_intr+0x78>
		cons.buf[cons.wpos++] = c;
  8004200fe0:	48 b8 20 20 36 04 80 	movabs $0x8004362020,%rax
  8004200fe7:	00 00 00 
  8004200fea:	8b 80 04 02 00 00    	mov    0x204(%rax),%eax
  8004200ff0:	8d 48 01             	lea    0x1(%rax),%ecx
  8004200ff3:	48 ba 20 20 36 04 80 	movabs $0x8004362020,%rdx
  8004200ffa:	00 00 00 
  8004200ffd:	89 8a 04 02 00 00    	mov    %ecx,0x204(%rdx)
  8004201003:	8b 55 fc             	mov    -0x4(%rbp),%edx
  8004201006:	89 d1                	mov    %edx,%ecx
  8004201008:	48 ba 20 20 36 04 80 	movabs $0x8004362020,%rdx
  800420100f:	00 00 00 
  8004201012:	89 c0                	mov    %eax,%eax
  8004201014:	88 0c 02             	mov    %cl,(%rdx,%rax,1)
		if (cons.wpos == CONSBUFSIZE)
  8004201017:	48 b8 20 20 36 04 80 	movabs $0x8004362020,%rax
  800420101e:	00 00 00 
  8004201021:	8b 80 04 02 00 00    	mov    0x204(%rax),%eax
  8004201027:	3d 00 02 00 00       	cmp    $0x200,%eax
  800420102c:	75 14                	jne    8004201042 <cons_intr+0x78>
			cons.wpos = 0;
  800420102e:	48 b8 20 20 36 04 80 	movabs $0x8004362020,%rax
  8004201035:	00 00 00 
  8004201038:	c7 80 04 02 00 00 00 	movl   $0x0,0x204(%rax)
  800420103f:	00 00 00 
static void
cons_intr(int (*proc)(void))
{
	int c;

	while ((c = (*proc)()) != -1) {
  8004201042:	48 8b 45 e8          	mov    -0x18(%rbp),%rax
  8004201046:	ff d0                	callq  *%rax
  8004201048:	89 45 fc             	mov    %eax,-0x4(%rbp)
  800420104b:	83 7d fc ff          	cmpl   $0xffffffff,-0x4(%rbp)
  800420104f:	75 87                	jne    8004200fd8 <cons_intr+0xe>
			continue;
		cons.buf[cons.wpos++] = c;
		if (cons.wpos == CONSBUFSIZE)
			cons.wpos = 0;
	}
}
  8004201051:	90                   	nop
  8004201052:	c9                   	leaveq 
  8004201053:	c3                   	retq   

0000008004201054 <cons_getc>:

// return the next input character from the console, or 0 if none waiting
int
cons_getc(void)
{
  8004201054:	55                   	push   %rbp
  8004201055:	48 89 e5             	mov    %rsp,%rbp
  8004201058:	48 83 ec 10          	sub    $0x10,%rsp
	int c;

	// poll for any pending input characters,
	// so that this function works even when interrupts are disabled
	// (e.g., when called from the kernel monitor).
	serial_intr();
  800420105c:	48 b8 56 07 20 04 80 	movabs $0x8004200756,%rax
  8004201063:	00 00 00 
  8004201066:	ff d0                	callq  *%rax
	kbd_intr();
  8004201068:	48 b8 77 0f 20 04 80 	movabs $0x8004200f77,%rax
  800420106f:	00 00 00 
  8004201072:	ff d0                	callq  *%rax

	// grab the next character from the input buffer.
	if (cons.rpos != cons.wpos) {
  8004201074:	48 b8 20 20 36 04 80 	movabs $0x8004362020,%rax
  800420107b:	00 00 00 
  800420107e:	8b 90 00 02 00 00    	mov    0x200(%rax),%edx
  8004201084:	48 b8 20 20 36 04 80 	movabs $0x8004362020,%rax
  800420108b:	00 00 00 
  800420108e:	8b 80 04 02 00 00    	mov    0x204(%rax),%eax
  8004201094:	39 c2                	cmp    %eax,%edx
  8004201096:	74 69                	je     8004201101 <cons_getc+0xad>
		c = cons.buf[cons.rpos++];
  8004201098:	48 b8 20 20 36 04 80 	movabs $0x8004362020,%rax
  800420109f:	00 00 00 
  80042010a2:	8b 80 00 02 00 00    	mov    0x200(%rax),%eax
  80042010a8:	8d 48 01             	lea    0x1(%rax),%ecx
  80042010ab:	48 ba 20 20 36 04 80 	movabs $0x8004362020,%rdx
  80042010b2:	00 00 00 
  80042010b5:	89 8a 00 02 00 00    	mov    %ecx,0x200(%rdx)
  80042010bb:	48 ba 20 20 36 04 80 	movabs $0x8004362020,%rdx
  80042010c2:	00 00 00 
  80042010c5:	89 c0                	mov    %eax,%eax
  80042010c7:	0f b6 04 02          	movzbl (%rdx,%rax,1),%eax
  80042010cb:	0f b6 c0             	movzbl %al,%eax
  80042010ce:	89 45 fc             	mov    %eax,-0x4(%rbp)
		if (cons.rpos == CONSBUFSIZE)
  80042010d1:	48 b8 20 20 36 04 80 	movabs $0x8004362020,%rax
  80042010d8:	00 00 00 
  80042010db:	8b 80 00 02 00 00    	mov    0x200(%rax),%eax
  80042010e1:	3d 00 02 00 00       	cmp    $0x200,%eax
  80042010e6:	75 14                	jne    80042010fc <cons_getc+0xa8>
			cons.rpos = 0;
  80042010e8:	48 b8 20 20 36 04 80 	movabs $0x8004362020,%rax
  80042010ef:	00 00 00 
  80042010f2:	c7 80 00 02 00 00 00 	movl   $0x0,0x200(%rax)
  80042010f9:	00 00 00 
		return c;
  80042010fc:	8b 45 fc             	mov    -0x4(%rbp),%eax
  80042010ff:	eb 05                	jmp    8004201106 <cons_getc+0xb2>
	}
	return 0;
  8004201101:	b8 00 00 00 00       	mov    $0x0,%eax
}
  8004201106:	c9                   	leaveq 
  8004201107:	c3                   	retq   

0000008004201108 <cons_putc>:

// output a character to the console
static void
cons_putc(int c)
{
  8004201108:	55                   	push   %rbp
  8004201109:	48 89 e5             	mov    %rsp,%rbp
  800420110c:	48 83 ec 10          	sub    $0x10,%rsp
  8004201110:	89 7d fc             	mov    %edi,-0x4(%rbp)
	serial_putc(c);
  8004201113:	8b 45 fc             	mov    -0x4(%rbp),%eax
  8004201116:	89 c7                	mov    %eax,%edi
  8004201118:	48 b8 84 07 20 04 80 	movabs $0x8004200784,%rax
  800420111f:	00 00 00 
  8004201122:	ff d0                	callq  *%rax
	lpt_putc(c);
  8004201124:	8b 45 fc             	mov    -0x4(%rbp),%eax
  8004201127:	89 c7                	mov    %eax,%edi
  8004201129:	48 b8 bf 08 20 04 80 	movabs $0x80042008bf,%rax
  8004201130:	00 00 00 
  8004201133:	ff d0                	callq  *%rax
	cga_putc(c);
  8004201135:	8b 45 fc             	mov    -0x4(%rbp),%eax
  8004201138:	89 c7                	mov    %eax,%edi
  800420113a:	48 b8 60 0a 20 04 80 	movabs $0x8004200a60,%rax
  8004201141:	00 00 00 
  8004201144:	ff d0                	callq  *%rax
}
  8004201146:	90                   	nop
  8004201147:	c9                   	leaveq 
  8004201148:	c3                   	retq   

0000008004201149 <cons_init>:

// initialize the console devices
void
cons_init(void)
{
  8004201149:	55                   	push   %rbp
  800420114a:	48 89 e5             	mov    %rsp,%rbp
	cga_init();
  800420114d:	48 b8 45 09 20 04 80 	movabs $0x8004200945,%rax
  8004201154:	00 00 00 
  8004201157:	ff d0                	callq  *%rax
	kbd_init();
  8004201159:	48 b8 94 0f 20 04 80 	movabs $0x8004200f94,%rax
  8004201160:	00 00 00 
  8004201163:	ff d0                	callq  *%rax
	serial_init();
  8004201165:	48 b8 ea 07 20 04 80 	movabs $0x80042007ea,%rax
  800420116c:	00 00 00 
  800420116f:	ff d0                	callq  *%rax

	if (!serial_exists)
  8004201171:	48 b8 00 20 36 04 80 	movabs $0x8004362000,%rax
  8004201178:	00 00 00 
  800420117b:	0f b6 00             	movzbl (%rax),%eax
  800420117e:	83 f0 01             	xor    $0x1,%eax
  8004201181:	84 c0                	test   %al,%al
  8004201183:	74 1b                	je     80042011a0 <cons_init+0x57>
		cprintf("Serial port does not exist!\n");
  8004201185:	48 bf 1a 63 21 04 80 	movabs $0x800421631a,%rdi
  800420118c:	00 00 00 
  800420118f:	b8 00 00 00 00       	mov    $0x0,%eax
  8004201194:	48 ba 0a 8e 20 04 80 	movabs $0x8004208e0a,%rdx
  800420119b:	00 00 00 
  800420119e:	ff d2                	callq  *%rdx
}
  80042011a0:	90                   	nop
  80042011a1:	5d                   	pop    %rbp
  80042011a2:	c3                   	retq   

00000080042011a3 <cputchar>:

// `High'-level console I/O.  Used by readline and cprintf.

void
cputchar(int c)
{
  80042011a3:	55                   	push   %rbp
  80042011a4:	48 89 e5             	mov    %rsp,%rbp
  80042011a7:	48 83 ec 10          	sub    $0x10,%rsp
  80042011ab:	89 7d fc             	mov    %edi,-0x4(%rbp)
	cons_putc(c);
  80042011ae:	8b 45 fc             	mov    -0x4(%rbp),%eax
  80042011b1:	89 c7                	mov    %eax,%edi
  80042011b3:	48 b8 08 11 20 04 80 	movabs $0x8004201108,%rax
  80042011ba:	00 00 00 
  80042011bd:	ff d0                	callq  *%rax
}
  80042011bf:	90                   	nop
  80042011c0:	c9                   	leaveq 
  80042011c1:	c3                   	retq   

00000080042011c2 <getchar>:

int
getchar(void)
{
  80042011c2:	55                   	push   %rbp
  80042011c3:	48 89 e5             	mov    %rsp,%rbp
  80042011c6:	48 83 ec 10          	sub    $0x10,%rsp
	int c;

	while ((c = cons_getc()) == 0)
  80042011ca:	48 b8 54 10 20 04 80 	movabs $0x8004201054,%rax
  80042011d1:	00 00 00 
  80042011d4:	ff d0                	callq  *%rax
  80042011d6:	89 45 fc             	mov    %eax,-0x4(%rbp)
  80042011d9:	83 7d fc 00          	cmpl   $0x0,-0x4(%rbp)
  80042011dd:	74 eb                	je     80042011ca <getchar+0x8>
		/* do nothing */;
	return c;
  80042011df:	8b 45 fc             	mov    -0x4(%rbp),%eax
}
  80042011e2:	c9                   	leaveq 
  80042011e3:	c3                   	retq   

00000080042011e4 <iscons>:

int
iscons(int fdnum)
{
  80042011e4:	55                   	push   %rbp
  80042011e5:	48 89 e5             	mov    %rsp,%rbp
  80042011e8:	48 83 ec 08          	sub    $0x8,%rsp
  80042011ec:	89 7d fc             	mov    %edi,-0x4(%rbp)
	// used by readline
	return 1;
  80042011ef:	b8 01 00 00 00       	mov    $0x1,%eax
}
  80042011f4:	c9                   	leaveq 
  80042011f5:	c3                   	retq   

00000080042011f6 <mon_help>:

/***** Implementations of basic kernel monitor commands *****/

int
mon_help(int argc, char **argv, struct Trapframe *tf)
{
  80042011f6:	55                   	push   %rbp
  80042011f7:	48 89 e5             	mov    %rsp,%rbp
  80042011fa:	48 83 ec 30          	sub    $0x30,%rsp
  80042011fe:	89 7d ec             	mov    %edi,-0x14(%rbp)
  8004201201:	48 89 75 e0          	mov    %rsi,-0x20(%rbp)
  8004201205:	48 89 55 d8          	mov    %rdx,-0x28(%rbp)
	int i;

	for (i = 0; i < NCOMMANDS; i++)
  8004201209:	c7 45 fc 00 00 00 00 	movl   $0x0,-0x4(%rbp)
  8004201210:	eb 6f                	jmp    8004201281 <mon_help+0x8b>
		cprintf("%s - %s\n", commands[i].name, commands[i].desc);
  8004201212:	48 b9 80 b5 22 04 80 	movabs $0x800422b580,%rcx
  8004201219:	00 00 00 
  800420121c:	8b 45 fc             	mov    -0x4(%rbp),%eax
  800420121f:	48 63 d0             	movslq %eax,%rdx
  8004201222:	48 89 d0             	mov    %rdx,%rax
  8004201225:	48 01 c0             	add    %rax,%rax
  8004201228:	48 01 d0             	add    %rdx,%rax
  800420122b:	48 c1 e0 03          	shl    $0x3,%rax
  800420122f:	48 01 c8             	add    %rcx,%rax
  8004201232:	48 83 c0 08          	add    $0x8,%rax
  8004201236:	48 8b 08             	mov    (%rax),%rcx
  8004201239:	48 be 80 b5 22 04 80 	movabs $0x800422b580,%rsi
  8004201240:	00 00 00 
  8004201243:	8b 45 fc             	mov    -0x4(%rbp),%eax
  8004201246:	48 63 d0             	movslq %eax,%rdx
  8004201249:	48 89 d0             	mov    %rdx,%rax
  800420124c:	48 01 c0             	add    %rax,%rax
  800420124f:	48 01 d0             	add    %rdx,%rax
  8004201252:	48 c1 e0 03          	shl    $0x3,%rax
  8004201256:	48 01 f0             	add    %rsi,%rax
  8004201259:	48 8b 00             	mov    (%rax),%rax
  800420125c:	48 89 ca             	mov    %rcx,%rdx
  800420125f:	48 89 c6             	mov    %rax,%rsi
  8004201262:	48 bf b3 63 21 04 80 	movabs $0x80042163b3,%rdi
  8004201269:	00 00 00 
  800420126c:	b8 00 00 00 00       	mov    $0x0,%eax
  8004201271:	48 b9 0a 8e 20 04 80 	movabs $0x8004208e0a,%rcx
  8004201278:	00 00 00 
  800420127b:	ff d1                	callq  *%rcx
int
mon_help(int argc, char **argv, struct Trapframe *tf)
{
	int i;

	for (i = 0; i < NCOMMANDS; i++)
  800420127d:	83 45 fc 01          	addl   $0x1,-0x4(%rbp)
  8004201281:	8b 45 fc             	mov    -0x4(%rbp),%eax
  8004201284:	83 f8 02             	cmp    $0x2,%eax
  8004201287:	76 89                	jbe    8004201212 <mon_help+0x1c>
		cprintf("%s - %s\n", commands[i].name, commands[i].desc);
	return 0;
  8004201289:	b8 00 00 00 00       	mov    $0x0,%eax
}
  800420128e:	c9                   	leaveq 
  800420128f:	c3                   	retq   

0000008004201290 <mon_kerninfo>:

int
mon_kerninfo(int argc, char **argv, struct Trapframe *tf)
{
  8004201290:	55                   	push   %rbp
  8004201291:	48 89 e5             	mov    %rsp,%rbp
  8004201294:	48 83 ec 30          	sub    $0x30,%rsp
  8004201298:	89 7d ec             	mov    %edi,-0x14(%rbp)
  800420129b:	48 89 75 e0          	mov    %rsi,-0x20(%rbp)
  800420129f:	48 89 55 d8          	mov    %rdx,-0x28(%rbp)
	extern char _start[], entry[], etext[], edata[], end[];

	cprintf("Special kernel symbols:\n");
  80042012a3:	48 bf bc 63 21 04 80 	movabs $0x80042163bc,%rdi
  80042012aa:	00 00 00 
  80042012ad:	b8 00 00 00 00       	mov    $0x0,%eax
  80042012b2:	48 ba 0a 8e 20 04 80 	movabs $0x8004208e0a,%rdx
  80042012b9:	00 00 00 
  80042012bc:	ff d2                	callq  *%rdx
	cprintf("  _start                  %08x (phys)\n", _start);
  80042012be:	48 be 0c 00 20 00 00 	movabs $0x20000c,%rsi
  80042012c5:	00 00 00 
  80042012c8:	48 bf d8 63 21 04 80 	movabs $0x80042163d8,%rdi
  80042012cf:	00 00 00 
  80042012d2:	b8 00 00 00 00       	mov    $0x0,%eax
  80042012d7:	48 ba 0a 8e 20 04 80 	movabs $0x8004208e0a,%rdx
  80042012de:	00 00 00 
  80042012e1:	ff d2                	callq  *%rdx
	cprintf("  entry  %08x (virt)  %08x (phys)\n", entry, entry - KERNBASE);
  80042012e3:	48 b8 0c 00 20 00 00 	movabs $0x20000c,%rax
  80042012ea:	00 00 00 
  80042012ed:	48 89 c2             	mov    %rax,%rdx
  80042012f0:	48 be 0c 00 20 04 80 	movabs $0x800420000c,%rsi
  80042012f7:	00 00 00 
  80042012fa:	48 bf 00 64 21 04 80 	movabs $0x8004216400,%rdi
  8004201301:	00 00 00 
  8004201304:	b8 00 00 00 00       	mov    $0x0,%eax
  8004201309:	48 b9 0a 8e 20 04 80 	movabs $0x8004208e0a,%rcx
  8004201310:	00 00 00 
  8004201313:	ff d1                	callq  *%rcx
	cprintf("  etext  %08x (virt)  %08x (phys)\n", etext, etext - KERNBASE);
  8004201315:	48 b8 3c 62 21 00 00 	movabs $0x21623c,%rax
  800420131c:	00 00 00 
  800420131f:	48 89 c2             	mov    %rax,%rdx
  8004201322:	48 be 3c 62 21 04 80 	movabs $0x800421623c,%rsi
  8004201329:	00 00 00 
  800420132c:	48 bf 28 64 21 04 80 	movabs $0x8004216428,%rdi
  8004201333:	00 00 00 
  8004201336:	b8 00 00 00 00       	mov    $0x0,%eax
  800420133b:	48 b9 0a 8e 20 04 80 	movabs $0x8004208e0a,%rcx
  8004201342:	00 00 00 
  8004201345:	ff d1                	callq  *%rcx
	cprintf("  edata  %08x (virt)  %08x (phys)\n", edata, edata - KERNBASE);
  8004201347:	48 b8 f0 15 36 00 00 	movabs $0x3615f0,%rax
  800420134e:	00 00 00 
  8004201351:	48 89 c2             	mov    %rax,%rdx
  8004201354:	48 be f0 15 36 04 80 	movabs $0x80043615f0,%rsi
  800420135b:	00 00 00 
  800420135e:	48 bf 50 64 21 04 80 	movabs $0x8004216450,%rdi
  8004201365:	00 00 00 
  8004201368:	b8 00 00 00 00       	mov    $0x0,%eax
  800420136d:	48 b9 0a 8e 20 04 80 	movabs $0x8004208e0a,%rcx
  8004201374:	00 00 00 
  8004201377:	ff d1                	callq  *%rcx
	cprintf("  end    %08x (virt)  %08x (phys)\n", end, end - KERNBASE);
  8004201379:	48 b8 10 60 3e 00 00 	movabs $0x3e6010,%rax
  8004201380:	00 00 00 
  8004201383:	48 89 c2             	mov    %rax,%rdx
  8004201386:	48 be 10 60 3e 04 80 	movabs $0x80043e6010,%rsi
  800420138d:	00 00 00 
  8004201390:	48 bf 78 64 21 04 80 	movabs $0x8004216478,%rdi
  8004201397:	00 00 00 
  800420139a:	b8 00 00 00 00       	mov    $0x0,%eax
  800420139f:	48 b9 0a 8e 20 04 80 	movabs $0x8004208e0a,%rcx
  80042013a6:	00 00 00 
  80042013a9:	ff d1                	callq  *%rcx
	cprintf("Kernel executable memory footprint: %dKB\n",
		ROUNDUP(end - entry, 1024) / 1024);
  80042013ab:	48 c7 45 f8 00 04 00 	movq   $0x400,-0x8(%rbp)
  80042013b2:	00 
  80042013b3:	48 b8 0c 00 20 04 80 	movabs $0x800420000c,%rax
  80042013ba:	00 00 00 
  80042013bd:	48 8b 55 f8          	mov    -0x8(%rbp),%rdx
  80042013c1:	48 29 c2             	sub    %rax,%rdx
  80042013c4:	48 b8 10 60 3e 04 80 	movabs $0x80043e6010,%rax
  80042013cb:	00 00 00 
  80042013ce:	48 83 e8 01          	sub    $0x1,%rax
  80042013d2:	48 01 d0             	add    %rdx,%rax
  80042013d5:	48 89 45 f0          	mov    %rax,-0x10(%rbp)
  80042013d9:	48 8b 45 f0          	mov    -0x10(%rbp),%rax
  80042013dd:	ba 00 00 00 00       	mov    $0x0,%edx
  80042013e2:	48 f7 75 f8          	divq   -0x8(%rbp)
  80042013e6:	48 8b 45 f0          	mov    -0x10(%rbp),%rax
  80042013ea:	48 29 d0             	sub    %rdx,%rax
	cprintf("  _start                  %08x (phys)\n", _start);
	cprintf("  entry  %08x (virt)  %08x (phys)\n", entry, entry - KERNBASE);
	cprintf("  etext  %08x (virt)  %08x (phys)\n", etext, etext - KERNBASE);
	cprintf("  edata  %08x (virt)  %08x (phys)\n", edata, edata - KERNBASE);
	cprintf("  end    %08x (virt)  %08x (phys)\n", end, end - KERNBASE);
	cprintf("Kernel executable memory footprint: %dKB\n",
  80042013ed:	48 8d 90 ff 03 00 00 	lea    0x3ff(%rax),%rdx
  80042013f4:	48 85 c0             	test   %rax,%rax
  80042013f7:	48 0f 48 c2          	cmovs  %rdx,%rax
  80042013fb:	48 c1 f8 0a          	sar    $0xa,%rax
  80042013ff:	48 89 c6             	mov    %rax,%rsi
  8004201402:	48 bf a0 64 21 04 80 	movabs $0x80042164a0,%rdi
  8004201409:	00 00 00 
  800420140c:	b8 00 00 00 00       	mov    $0x0,%eax
  8004201411:	48 ba 0a 8e 20 04 80 	movabs $0x8004208e0a,%rdx
  8004201418:	00 00 00 
  800420141b:	ff d2                	callq  *%rdx
		ROUNDUP(end - entry, 1024) / 1024);
	return 0;
  800420141d:	b8 00 00 00 00       	mov    $0x0,%eax
}
  8004201422:	c9                   	leaveq 
  8004201423:	c3                   	retq   

0000008004201424 <mon_backtrace>:

int
mon_backtrace(int argc, char **argv, struct Trapframe *tf)
{
  8004201424:	55                   	push   %rbp
  8004201425:	48 89 e5             	mov    %rsp,%rbp
  8004201428:	48 81 ec 80 05 00 00 	sub    $0x580,%rsp
  800420142f:	89 bd 9c fa ff ff    	mov    %edi,-0x564(%rbp)
  8004201435:	48 89 b5 90 fa ff ff 	mov    %rsi,-0x570(%rbp)
  800420143c:	48 89 95 88 fa ff ff 	mov    %rdx,-0x578(%rbp)
	cprintf("Stack backtrace:\n");
  8004201443:	48 bf ca 64 21 04 80 	movabs $0x80042164ca,%rdi
  800420144a:	00 00 00 
  800420144d:	b8 00 00 00 00       	mov    $0x0,%eax
  8004201452:	48 ba 0a 8e 20 04 80 	movabs $0x8004208e0a,%rdx
  8004201459:	00 00 00 
  800420145c:	ff d2                	callq  *%rdx

static __inline uint64_t
read_rbp(void)
{
	uint64_t rbp;
	__asm __volatile("movq %%rbp,%0" : "=r" (rbp)::"cc","memory");
  800420145e:	48 89 e8             	mov    %rbp,%rax
  8004201461:	48 89 45 80          	mov    %rax,-0x80(%rbp)
	return rbp;
  8004201465:	48 8b 45 80          	mov    -0x80(%rbp),%rax

	//gather initial rbp and rip
	uint64_t rbp = read_rbp();
  8004201469:	48 89 45 f8          	mov    %rax,-0x8(%rbp)
	uint64_t rip;
	__asm __volatile("leaq (%%rip), %0" : "=r" (rip)::"cc","memory");
  800420146d:	48 8d 05 00 00 00 00 	lea    0x0(%rip),%rax        # 8004201474 <mon_backtrace+0x50>
  8004201474:	48 89 45 f0          	mov    %rax,-0x10(%rbp)

	//iterate until end
	while(rbp!=0){
  8004201478:	e9 b0 01 00 00       	jmpq   800420162d <mon_backtrace+0x209>
		struct Ripdebuginfo ripdebug;
		struct Ripdebuginfo *info;
		info = &ripdebug;
  800420147d:	48 8d 85 a0 fa ff ff 	lea    -0x560(%rbp),%rax
  8004201484:	48 89 45 d0          	mov    %rax,-0x30(%rbp)
		int returnInt = debuginfo_rip(rip,info);
  8004201488:	48 8b 55 d0          	mov    -0x30(%rbp),%rdx
  800420148c:	48 8b 45 f0          	mov    -0x10(%rbp),%rax
  8004201490:	48 89 d6             	mov    %rdx,%rsi
  8004201493:	48 89 c7             	mov    %rax,%rdi
  8004201496:	48 b8 f0 d8 20 04 80 	movabs $0x800420d8f0,%rax
  800420149d:	00 00 00 
  80042014a0:	ff d0                	callq  *%rax
  80042014a2:	89 45 cc             	mov    %eax,-0x34(%rbp)

		//print first line
		cprintf("  rbp %016llx  rip %016llx\n", rbp, rip);
  80042014a5:	48 8b 55 f0          	mov    -0x10(%rbp),%rdx
  80042014a9:	48 8b 45 f8          	mov    -0x8(%rbp),%rax
  80042014ad:	48 89 c6             	mov    %rax,%rsi
  80042014b0:	48 bf dc 64 21 04 80 	movabs $0x80042164dc,%rdi
  80042014b7:	00 00 00 
  80042014ba:	b8 00 00 00 00       	mov    $0x0,%eax
  80042014bf:	48 b9 0a 8e 20 04 80 	movabs $0x8004208e0a,%rcx
  80042014c6:	00 00 00 
  80042014c9:	ff d1                	callq  *%rcx

		//make sure rip debug was successfull
		if (returnInt==0){
  80042014cb:	83 7d cc 00          	cmpl   $0x0,-0x34(%rbp)
  80042014cf:	0f 85 3e 01 00 00    	jne    8004201613 <mon_backtrace+0x1ef>
		
			//gather data for second line of print
			const char *rip_file = info->rip_file;
  80042014d5:	48 8b 45 d0          	mov    -0x30(%rbp),%rax
  80042014d9:	48 8b 00             	mov    (%rax),%rax
  80042014dc:	48 89 45 c0          	mov    %rax,-0x40(%rbp)
			int line = info->rip_line;
  80042014e0:	48 8b 45 d0          	mov    -0x30(%rbp),%rax
  80042014e4:	8b 40 08             	mov    0x8(%rax),%eax
  80042014e7:	89 45 bc             	mov    %eax,-0x44(%rbp)
			const char *funct_name = info->rip_fn_name;
  80042014ea:	48 8b 45 d0          	mov    -0x30(%rbp),%rax
  80042014ee:	48 8b 40 10          	mov    0x10(%rax),%rax
  80042014f2:	48 89 45 b0          	mov    %rax,-0x50(%rbp)
			uint64_t funct_add= (uint64_t)(info->rip_fn_addr);
  80042014f6:	48 8b 45 d0          	mov    -0x30(%rbp),%rax
  80042014fa:	48 8b 40 20          	mov    0x20(%rax),%rax
  80042014fe:	48 89 45 a8          	mov    %rax,-0x58(%rbp)
			uint64_t funct_off = rip - funct_add ;
  8004201502:	48 8b 45 f0          	mov    -0x10(%rbp),%rax
  8004201506:	48 2b 45 a8          	sub    -0x58(%rbp),%rax
  800420150a:	48 89 45 a0          	mov    %rax,-0x60(%rbp)
			int args = info->rip_fn_narg;
  800420150e:	48 8b 45 d0          	mov    -0x30(%rbp),%rax
  8004201512:	8b 40 28             	mov    0x28(%rax),%eax
  8004201515:	89 45 9c             	mov    %eax,-0x64(%rbp)

			//print second line
			cprintf("    %s:%d: %s+%016llx  args:%d", rip_file,line,funct_name,funct_off, args);
  8004201518:	8b 7d 9c             	mov    -0x64(%rbp),%edi
  800420151b:	48 8b 75 a0          	mov    -0x60(%rbp),%rsi
  800420151f:	48 8b 4d b0          	mov    -0x50(%rbp),%rcx
  8004201523:	8b 55 bc             	mov    -0x44(%rbp),%edx
  8004201526:	48 8b 45 c0          	mov    -0x40(%rbp),%rax
  800420152a:	41 89 f9             	mov    %edi,%r9d
  800420152d:	49 89 f0             	mov    %rsi,%r8
  8004201530:	48 89 c6             	mov    %rax,%rsi
  8004201533:	48 bf f8 64 21 04 80 	movabs $0x80042164f8,%rdi
  800420153a:	00 00 00 
  800420153d:	b8 00 00 00 00       	mov    $0x0,%eax
  8004201542:	49 ba 0a 8e 20 04 80 	movabs $0x8004208e0a,%r10
  8004201549:	00 00 00 
  800420154c:	41 ff d2             	callq  *%r10

			//get data for arguments
			uint16_t regnum = ripdebug.reg_table.cfa_rule.dw_regnum;
  800420154f:	0f b7 85 4a fb ff ff 	movzwl -0x4b6(%rbp),%eax
  8004201556:	66 89 45 9a          	mov    %ax,-0x66(%rbp)
                        uint64_t ptr;
			//determine where arguments should be read from
                        if (regnum==6){
  800420155a:	66 83 7d 9a 06       	cmpw   $0x6,-0x66(%rbp)
  800420155f:	75 14                	jne    8004201575 <mon_backtrace+0x151>
                        	ptr = rbp+ripdebug.reg_table.cfa_rule.dw_offset;
  8004201561:	48 8b 95 50 fb ff ff 	mov    -0x4b0(%rbp),%rdx
  8004201568:	48 8b 45 f8          	mov    -0x8(%rbp),%rax
  800420156c:	48 01 d0             	add    %rdx,%rax
  800420156f:	48 89 45 e8          	mov    %rax,-0x18(%rbp)
  8004201573:	eb 20                	jmp    8004201595 <mon_backtrace+0x171>
                        }else if(regnum==7){
  8004201575:	66 83 7d 9a 07       	cmpw   $0x7,-0x66(%rbp)
  800420157a:	75 19                	jne    8004201595 <mon_backtrace+0x171>

static __inline uint64_t
read_rsp(void)
{
	uint64_t esp;
	__asm __volatile("movq %%rsp,%0" : "=r" (esp));
  800420157c:	48 89 e0             	mov    %rsp,%rax
  800420157f:	48 89 45 d8          	mov    %rax,-0x28(%rbp)
	return esp;
  8004201583:	48 8b 55 d8          	mov    -0x28(%rbp),%rdx
	                	ptr = read_rsp()+ripdebug.reg_table.cfa_rule.dw_offset;
  8004201587:	48 8b 85 50 fb ff ff 	mov    -0x4b0(%rbp),%rax
  800420158e:	48 01 d0             	add    %rdx,%rax
  8004201591:	48 89 45 e8          	mov    %rax,-0x18(%rbp)
                        }
				
			//print arguments from stack
			for (int i=1; i<=args; i++){
  8004201595:	c7 45 e4 01 00 00 00 	movl   $0x1,-0x1c(%rbp)
  800420159c:	eb 52                	jmp    80042015f0 <mon_backtrace+0x1cc>
				uint64_t argument = ptr+ripdebug.offset_fn_arg[i-1];
  800420159e:	8b 45 e4             	mov    -0x1c(%rbp),%eax
  80042015a1:	83 e8 01             	sub    $0x1,%eax
  80042015a4:	48 98                	cltq   
  80042015a6:	48 83 c0 0a          	add    $0xa,%rax
  80042015aa:	48 8b 94 c5 a8 fa ff 	mov    -0x558(%rbp,%rax,8),%rdx
  80042015b1:	ff 
  80042015b2:	48 8b 45 e8          	mov    -0x18(%rbp),%rax
  80042015b6:	48 01 d0             	add    %rdx,%rax
  80042015b9:	48 89 45 90          	mov    %rax,-0x70(%rbp)
				uint16_t *arg_ptr=(uint16_t *)argument;
  80042015bd:	48 8b 45 90          	mov    -0x70(%rbp),%rax
  80042015c1:	48 89 45 88          	mov    %rax,-0x78(%rbp)
				cprintf("  %016x", arg_ptr[0]);
  80042015c5:	48 8b 45 88          	mov    -0x78(%rbp),%rax
  80042015c9:	0f b7 00             	movzwl (%rax),%eax
  80042015cc:	0f b7 c0             	movzwl %ax,%eax
  80042015cf:	89 c6                	mov    %eax,%esi
  80042015d1:	48 bf 17 65 21 04 80 	movabs $0x8004216517,%rdi
  80042015d8:	00 00 00 
  80042015db:	b8 00 00 00 00       	mov    $0x0,%eax
  80042015e0:	48 ba 0a 8e 20 04 80 	movabs $0x8004208e0a,%rdx
  80042015e7:	00 00 00 
  80042015ea:	ff d2                	callq  *%rdx
                        }else if(regnum==7){
	                	ptr = read_rsp()+ripdebug.reg_table.cfa_rule.dw_offset;
                        }
				
			//print arguments from stack
			for (int i=1; i<=args; i++){
  80042015ec:	83 45 e4 01          	addl   $0x1,-0x1c(%rbp)
  80042015f0:	8b 45 e4             	mov    -0x1c(%rbp),%eax
  80042015f3:	3b 45 9c             	cmp    -0x64(%rbp),%eax
  80042015f6:	7e a6                	jle    800420159e <mon_backtrace+0x17a>
				uint64_t argument = ptr+ripdebug.offset_fn_arg[i-1];
				uint16_t *arg_ptr=(uint16_t *)argument;
				cprintf("  %016x", arg_ptr[0]);
			}
			cprintf("\n");
  80042015f8:	48 bf 1f 65 21 04 80 	movabs $0x800421651f,%rdi
  80042015ff:	00 00 00 
  8004201602:	b8 00 00 00 00       	mov    $0x0,%eax
  8004201607:	48 ba 0a 8e 20 04 80 	movabs $0x8004208e0a,%rdx
  800420160e:	00 00 00 
  8004201611:	ff d2                	callq  *%rdx
		}

		//get next values
		rip = ((uint64_t *)rbp)[1];
  8004201613:	48 8b 45 f8          	mov    -0x8(%rbp),%rax
  8004201617:	48 83 c0 08          	add    $0x8,%rax
  800420161b:	48 8b 00             	mov    (%rax),%rax
  800420161e:	48 89 45 f0          	mov    %rax,-0x10(%rbp)
		rbp = ((uint64_t *)rbp)[0];
  8004201622:	48 8b 45 f8          	mov    -0x8(%rbp),%rax
  8004201626:	48 8b 00             	mov    (%rax),%rax
  8004201629:	48 89 45 f8          	mov    %rax,-0x8(%rbp)
	uint64_t rbp = read_rbp();
	uint64_t rip;
	__asm __volatile("leaq (%%rip), %0" : "=r" (rip)::"cc","memory");

	//iterate until end
	while(rbp!=0){
  800420162d:	48 83 7d f8 00       	cmpq   $0x0,-0x8(%rbp)
  8004201632:	0f 85 45 fe ff ff    	jne    800420147d <mon_backtrace+0x59>

		//get next values
		rip = ((uint64_t *)rbp)[1];
		rbp = ((uint64_t *)rbp)[0];
	}
	return 0;
  8004201638:	b8 00 00 00 00       	mov    $0x0,%eax
}
  800420163d:	c9                   	leaveq 
  800420163e:	c3                   	retq   

000000800420163f <runcmd>:
#define WHITESPACE "\t\r\n "
#define MAXARGS 16

static int
runcmd(char *buf, struct Trapframe *tf)
{
  800420163f:	55                   	push   %rbp
  8004201640:	48 89 e5             	mov    %rsp,%rbp
  8004201643:	48 81 ec a0 00 00 00 	sub    $0xa0,%rsp
  800420164a:	48 89 bd 68 ff ff ff 	mov    %rdi,-0x98(%rbp)
  8004201651:	48 89 b5 60 ff ff ff 	mov    %rsi,-0xa0(%rbp)
	int argc;
	char *argv[MAXARGS];
	int i;

	// Parse the command buffer into whitespace-separated arguments
	argc = 0;
  8004201658:	c7 45 fc 00 00 00 00 	movl   $0x0,-0x4(%rbp)
	argv[argc] = 0;
  800420165f:	8b 45 fc             	mov    -0x4(%rbp),%eax
  8004201662:	48 98                	cltq   
  8004201664:	48 c7 84 c5 70 ff ff 	movq   $0x0,-0x90(%rbp,%rax,8)
  800420166b:	ff 00 00 00 00 
	while (1) {
		// gobble whitespace
		while (*buf && strchr(WHITESPACE, *buf))
  8004201670:	eb 15                	jmp    8004201687 <runcmd+0x48>
			*buf++ = 0;
  8004201672:	48 8b 85 68 ff ff ff 	mov    -0x98(%rbp),%rax
  8004201679:	48 8d 50 01          	lea    0x1(%rax),%rdx
  800420167d:	48 89 95 68 ff ff ff 	mov    %rdx,-0x98(%rbp)
  8004201684:	c6 00 00             	movb   $0x0,(%rax)
	// Parse the command buffer into whitespace-separated arguments
	argc = 0;
	argv[argc] = 0;
	while (1) {
		// gobble whitespace
		while (*buf && strchr(WHITESPACE, *buf))
  8004201687:	48 8b 85 68 ff ff ff 	mov    -0x98(%rbp),%rax
  800420168e:	0f b6 00             	movzbl (%rax),%eax
  8004201691:	84 c0                	test   %al,%al
  8004201693:	74 2a                	je     80042016bf <runcmd+0x80>
  8004201695:	48 8b 85 68 ff ff ff 	mov    -0x98(%rbp),%rax
  800420169c:	0f b6 00             	movzbl (%rax),%eax
  800420169f:	0f be c0             	movsbl %al,%eax
  80042016a2:	89 c6                	mov    %eax,%esi
  80042016a4:	48 bf 21 65 21 04 80 	movabs $0x8004216521,%rdi
  80042016ab:	00 00 00 
  80042016ae:	48 b8 03 ec 20 04 80 	movabs $0x800420ec03,%rax
  80042016b5:	00 00 00 
  80042016b8:	ff d0                	callq  *%rax
  80042016ba:	48 85 c0             	test   %rax,%rax
  80042016bd:	75 b3                	jne    8004201672 <runcmd+0x33>
			*buf++ = 0;
		if (*buf == 0)
  80042016bf:	48 8b 85 68 ff ff ff 	mov    -0x98(%rbp),%rax
  80042016c6:	0f b6 00             	movzbl (%rax),%eax
  80042016c9:	84 c0                	test   %al,%al
  80042016cb:	0f 84 95 00 00 00    	je     8004201766 <runcmd+0x127>
			break;

		// save and scan past next arg
		if (argc == MAXARGS-1) {
  80042016d1:	83 7d fc 0f          	cmpl   $0xf,-0x4(%rbp)
  80042016d5:	75 2a                	jne    8004201701 <runcmd+0xc2>
			cprintf("Too many arguments (max %d)\n", MAXARGS);
  80042016d7:	be 10 00 00 00       	mov    $0x10,%esi
  80042016dc:	48 bf 26 65 21 04 80 	movabs $0x8004216526,%rdi
  80042016e3:	00 00 00 
  80042016e6:	b8 00 00 00 00       	mov    $0x0,%eax
  80042016eb:	48 ba 0a 8e 20 04 80 	movabs $0x8004208e0a,%rdx
  80042016f2:	00 00 00 
  80042016f5:	ff d2                	callq  *%rdx
			return 0;
  80042016f7:	b8 00 00 00 00       	mov    $0x0,%eax
  80042016fc:	e9 4b 01 00 00       	jmpq   800420184c <runcmd+0x20d>
		}
		argv[argc++] = buf;
  8004201701:	8b 45 fc             	mov    -0x4(%rbp),%eax
  8004201704:	8d 50 01             	lea    0x1(%rax),%edx
  8004201707:	89 55 fc             	mov    %edx,-0x4(%rbp)
  800420170a:	48 98                	cltq   
  800420170c:	48 8b 95 68 ff ff ff 	mov    -0x98(%rbp),%rdx
  8004201713:	48 89 94 c5 70 ff ff 	mov    %rdx,-0x90(%rbp,%rax,8)
  800420171a:	ff 
		while (*buf && !strchr(WHITESPACE, *buf))
  800420171b:	eb 08                	jmp    8004201725 <runcmd+0xe6>
			buf++;
  800420171d:	48 83 85 68 ff ff ff 	addq   $0x1,-0x98(%rbp)
  8004201724:	01 
		if (argc == MAXARGS-1) {
			cprintf("Too many arguments (max %d)\n", MAXARGS);
			return 0;
		}
		argv[argc++] = buf;
		while (*buf && !strchr(WHITESPACE, *buf))
  8004201725:	48 8b 85 68 ff ff ff 	mov    -0x98(%rbp),%rax
  800420172c:	0f b6 00             	movzbl (%rax),%eax
  800420172f:	84 c0                	test   %al,%al
  8004201731:	0f 84 39 ff ff ff    	je     8004201670 <runcmd+0x31>
  8004201737:	48 8b 85 68 ff ff ff 	mov    -0x98(%rbp),%rax
  800420173e:	0f b6 00             	movzbl (%rax),%eax
  8004201741:	0f be c0             	movsbl %al,%eax
  8004201744:	89 c6                	mov    %eax,%esi
  8004201746:	48 bf 21 65 21 04 80 	movabs $0x8004216521,%rdi
  800420174d:	00 00 00 
  8004201750:	48 b8 03 ec 20 04 80 	movabs $0x800420ec03,%rax
  8004201757:	00 00 00 
  800420175a:	ff d0                	callq  *%rax
  800420175c:	48 85 c0             	test   %rax,%rax
  800420175f:	74 bc                	je     800420171d <runcmd+0xde>
			buf++;
	}
  8004201761:	e9 0a ff ff ff       	jmpq   8004201670 <runcmd+0x31>
	while (1) {
		// gobble whitespace
		while (*buf && strchr(WHITESPACE, *buf))
			*buf++ = 0;
		if (*buf == 0)
			break;
  8004201766:	90                   	nop
		}
		argv[argc++] = buf;
		while (*buf && !strchr(WHITESPACE, *buf))
			buf++;
	}
	argv[argc] = 0;
  8004201767:	8b 45 fc             	mov    -0x4(%rbp),%eax
  800420176a:	48 98                	cltq   
  800420176c:	48 c7 84 c5 70 ff ff 	movq   $0x0,-0x90(%rbp,%rax,8)
  8004201773:	ff 00 00 00 00 

	// Lookup and invoke the command
	if (argc == 0)
  8004201778:	83 7d fc 00          	cmpl   $0x0,-0x4(%rbp)
  800420177c:	75 0a                	jne    8004201788 <runcmd+0x149>
		return 0;
  800420177e:	b8 00 00 00 00       	mov    $0x0,%eax
  8004201783:	e9 c4 00 00 00       	jmpq   800420184c <runcmd+0x20d>
	for (i = 0; i < NCOMMANDS; i++) {
  8004201788:	c7 45 f8 00 00 00 00 	movl   $0x0,-0x8(%rbp)
  800420178f:	e9 82 00 00 00       	jmpq   8004201816 <runcmd+0x1d7>
		if (strcmp(argv[0], commands[i].name) == 0)
  8004201794:	48 b9 80 b5 22 04 80 	movabs $0x800422b580,%rcx
  800420179b:	00 00 00 
  800420179e:	8b 45 f8             	mov    -0x8(%rbp),%eax
  80042017a1:	48 63 d0             	movslq %eax,%rdx
  80042017a4:	48 89 d0             	mov    %rdx,%rax
  80042017a7:	48 01 c0             	add    %rax,%rax
  80042017aa:	48 01 d0             	add    %rdx,%rax
  80042017ad:	48 c1 e0 03          	shl    $0x3,%rax
  80042017b1:	48 01 c8             	add    %rcx,%rax
  80042017b4:	48 8b 10             	mov    (%rax),%rdx
  80042017b7:	48 8b 85 70 ff ff ff 	mov    -0x90(%rbp),%rax
  80042017be:	48 89 d6             	mov    %rdx,%rsi
  80042017c1:	48 89 c7             	mov    %rax,%rdi
  80042017c4:	48 b8 3f eb 20 04 80 	movabs $0x800420eb3f,%rax
  80042017cb:	00 00 00 
  80042017ce:	ff d0                	callq  *%rax
  80042017d0:	85 c0                	test   %eax,%eax
  80042017d2:	75 3e                	jne    8004201812 <runcmd+0x1d3>
			return commands[i].func(argc, argv, tf);
  80042017d4:	48 b9 80 b5 22 04 80 	movabs $0x800422b580,%rcx
  80042017db:	00 00 00 
  80042017de:	8b 45 f8             	mov    -0x8(%rbp),%eax
  80042017e1:	48 63 d0             	movslq %eax,%rdx
  80042017e4:	48 89 d0             	mov    %rdx,%rax
  80042017e7:	48 01 c0             	add    %rax,%rax
  80042017ea:	48 01 d0             	add    %rdx,%rax
  80042017ed:	48 c1 e0 03          	shl    $0x3,%rax
  80042017f1:	48 01 c8             	add    %rcx,%rax
  80042017f4:	48 83 c0 10          	add    $0x10,%rax
  80042017f8:	48 8b 00             	mov    (%rax),%rax
  80042017fb:	48 8b 95 60 ff ff ff 	mov    -0xa0(%rbp),%rdx
  8004201802:	48 8d b5 70 ff ff ff 	lea    -0x90(%rbp),%rsi
  8004201809:	8b 4d fc             	mov    -0x4(%rbp),%ecx
  800420180c:	89 cf                	mov    %ecx,%edi
  800420180e:	ff d0                	callq  *%rax
  8004201810:	eb 3a                	jmp    800420184c <runcmd+0x20d>
	argv[argc] = 0;

	// Lookup and invoke the command
	if (argc == 0)
		return 0;
	for (i = 0; i < NCOMMANDS; i++) {
  8004201812:	83 45 f8 01          	addl   $0x1,-0x8(%rbp)
  8004201816:	8b 45 f8             	mov    -0x8(%rbp),%eax
  8004201819:	83 f8 02             	cmp    $0x2,%eax
  800420181c:	0f 86 72 ff ff ff    	jbe    8004201794 <runcmd+0x155>
		if (strcmp(argv[0], commands[i].name) == 0)
			return commands[i].func(argc, argv, tf);
	}
	cprintf("Unknown command '%s'\n", argv[0]);
  8004201822:	48 8b 85 70 ff ff ff 	mov    -0x90(%rbp),%rax
  8004201829:	48 89 c6             	mov    %rax,%rsi
  800420182c:	48 bf 43 65 21 04 80 	movabs $0x8004216543,%rdi
  8004201833:	00 00 00 
  8004201836:	b8 00 00 00 00       	mov    $0x0,%eax
  800420183b:	48 ba 0a 8e 20 04 80 	movabs $0x8004208e0a,%rdx
  8004201842:	00 00 00 
  8004201845:	ff d2                	callq  *%rdx
	return 0;
  8004201847:	b8 00 00 00 00       	mov    $0x0,%eax
}
  800420184c:	c9                   	leaveq 
  800420184d:	c3                   	retq   

000000800420184e <monitor>:

void
monitor(struct Trapframe *tf)
{
  800420184e:	55                   	push   %rbp
  800420184f:	48 89 e5             	mov    %rsp,%rbp
  8004201852:	48 83 ec 20          	sub    $0x20,%rsp
  8004201856:	48 89 7d e8          	mov    %rdi,-0x18(%rbp)
	char *buf;

	cprintf("Welcome to the JOS kernel monitor!\n");
  800420185a:	48 bf 60 65 21 04 80 	movabs $0x8004216560,%rdi
  8004201861:	00 00 00 
  8004201864:	b8 00 00 00 00       	mov    $0x0,%eax
  8004201869:	48 ba 0a 8e 20 04 80 	movabs $0x8004208e0a,%rdx
  8004201870:	00 00 00 
  8004201873:	ff d2                	callq  *%rdx
	cprintf("Type 'help' for a list of commands.\n");
  8004201875:	48 bf 88 65 21 04 80 	movabs $0x8004216588,%rdi
  800420187c:	00 00 00 
  800420187f:	b8 00 00 00 00       	mov    $0x0,%eax
  8004201884:	48 ba 0a 8e 20 04 80 	movabs $0x8004208e0a,%rdx
  800420188b:	00 00 00 
  800420188e:	ff d2                	callq  *%rdx

	if (tf != NULL)
  8004201890:	48 83 7d e8 00       	cmpq   $0x0,-0x18(%rbp)
  8004201895:	74 13                	je     80042018aa <monitor+0x5c>
		print_trapframe(tf);
  8004201897:	48 8b 45 e8          	mov    -0x18(%rbp),%rax
  800420189b:	48 89 c7             	mov    %rax,%rdi
  800420189e:	48 b8 25 b0 20 04 80 	movabs $0x800420b025,%rax
  80042018a5:	00 00 00 
  80042018a8:	ff d0                	callq  *%rax

	while (1) {
		buf = readline("K> ");
  80042018aa:	48 bf ad 65 21 04 80 	movabs $0x80042165ad,%rdi
  80042018b1:	00 00 00 
  80042018b4:	48 b8 1e e8 20 04 80 	movabs $0x800420e81e,%rax
  80042018bb:	00 00 00 
  80042018be:	ff d0                	callq  *%rax
  80042018c0:	48 89 45 f8          	mov    %rax,-0x8(%rbp)
		if (buf != NULL)
  80042018c4:	48 83 7d f8 00       	cmpq   $0x0,-0x8(%rbp)
  80042018c9:	74 df                	je     80042018aa <monitor+0x5c>
			if (runcmd(buf, tf) < 0)
  80042018cb:	48 8b 55 e8          	mov    -0x18(%rbp),%rdx
  80042018cf:	48 8b 45 f8          	mov    -0x8(%rbp),%rax
  80042018d3:	48 89 d6             	mov    %rdx,%rsi
  80042018d6:	48 89 c7             	mov    %rax,%rdi
  80042018d9:	48 b8 3f 16 20 04 80 	movabs $0x800420163f,%rax
  80042018e0:	00 00 00 
  80042018e3:	ff d0                	callq  *%rax
  80042018e5:	85 c0                	test   %eax,%eax
  80042018e7:	78 02                	js     80042018eb <monitor+0x9d>
				break;
	}
  80042018e9:	eb bf                	jmp    80042018aa <monitor+0x5c>

	while (1) {
		buf = readline("K> ");
		if (buf != NULL)
			if (runcmd(buf, tf) < 0)
				break;
  80042018eb:	90                   	nop
	}
}
  80042018ec:	90                   	nop
  80042018ed:	c9                   	leaveq 
  80042018ee:	c3                   	retq   

00000080042018ef <page2ppn>:
int	user_mem_check(struct Env *env, const void *va, size_t len, int perm);
void	user_mem_assert(struct Env *env, const void *va, size_t len, int perm);

static inline ppn_t
page2ppn(struct PageInfo *pp)
{
  80042018ef:	55                   	push   %rbp
  80042018f0:	48 89 e5             	mov    %rsp,%rbp
  80042018f3:	48 83 ec 08          	sub    $0x8,%rsp
  80042018f7:	48 89 7d f8          	mov    %rdi,-0x8(%rbp)
	return pp - pages;
  80042018fb:	48 8b 55 f8          	mov    -0x8(%rbp),%rdx
  80042018ff:	48 b8 38 37 36 04 80 	movabs $0x8004363738,%rax
  8004201906:	00 00 00 
  8004201909:	48 8b 00             	mov    (%rax),%rax
  800420190c:	48 29 c2             	sub    %rax,%rdx
  800420190f:	48 89 d0             	mov    %rdx,%rax
  8004201912:	48 c1 f8 04          	sar    $0x4,%rax
}
  8004201916:	c9                   	leaveq 
  8004201917:	c3                   	retq   

0000008004201918 <page2pa>:

static inline physaddr_t
page2pa(struct PageInfo *pp)
{
  8004201918:	55                   	push   %rbp
  8004201919:	48 89 e5             	mov    %rsp,%rbp
  800420191c:	48 83 ec 08          	sub    $0x8,%rsp
  8004201920:	48 89 7d f8          	mov    %rdi,-0x8(%rbp)
	return page2ppn(pp) << PGSHIFT;
  8004201924:	48 8b 45 f8          	mov    -0x8(%rbp),%rax
  8004201928:	48 89 c7             	mov    %rax,%rdi
  800420192b:	48 b8 ef 18 20 04 80 	movabs $0x80042018ef,%rax
  8004201932:	00 00 00 
  8004201935:	ff d0                	callq  *%rax
  8004201937:	48 c1 e0 0c          	shl    $0xc,%rax
}
  800420193b:	c9                   	leaveq 
  800420193c:	c3                   	retq   

000000800420193d <pa2page>:

static inline struct PageInfo*
pa2page(physaddr_t pa)
{
  800420193d:	55                   	push   %rbp
  800420193e:	48 89 e5             	mov    %rsp,%rbp
  8004201941:	48 83 ec 10          	sub    $0x10,%rsp
  8004201945:	48 89 7d f8          	mov    %rdi,-0x8(%rbp)
	if (PPN(pa) >= npages)
  8004201949:	48 8b 45 f8          	mov    -0x8(%rbp),%rax
  800420194d:	48 c1 e8 0c          	shr    $0xc,%rax
  8004201951:	48 89 c2             	mov    %rax,%rdx
  8004201954:	48 b8 30 37 36 04 80 	movabs $0x8004363730,%rax
  800420195b:	00 00 00 
  800420195e:	48 8b 00             	mov    (%rax),%rax
  8004201961:	48 39 c2             	cmp    %rax,%rdx
  8004201964:	72 2a                	jb     8004201990 <pa2page+0x53>
		panic("pa2page called with invalid pa");
  8004201966:	48 ba b8 65 21 04 80 	movabs $0x80042165b8,%rdx
  800420196d:	00 00 00 
  8004201970:	be 54 00 00 00       	mov    $0x54,%esi
  8004201975:	48 bf d7 65 21 04 80 	movabs $0x80042165d7,%rdi
  800420197c:	00 00 00 
  800420197f:	b8 00 00 00 00       	mov    $0x0,%eax
  8004201984:	48 b9 9b 04 20 04 80 	movabs $0x800420049b,%rcx
  800420198b:	00 00 00 
  800420198e:	ff d1                	callq  *%rcx
	return &pages[PPN(pa)];
  8004201990:	48 b8 38 37 36 04 80 	movabs $0x8004363738,%rax
  8004201997:	00 00 00 
  800420199a:	48 8b 00             	mov    (%rax),%rax
  800420199d:	48 8b 55 f8          	mov    -0x8(%rbp),%rdx
  80042019a1:	48 c1 ea 0c          	shr    $0xc,%rdx
  80042019a5:	48 c1 e2 04          	shl    $0x4,%rdx
  80042019a9:	48 01 d0             	add    %rdx,%rax
}
  80042019ac:	c9                   	leaveq 
  80042019ad:	c3                   	retq   

00000080042019ae <page2kva>:

static inline void*
page2kva(struct PageInfo *pp)
{
  80042019ae:	55                   	push   %rbp
  80042019af:	48 89 e5             	mov    %rsp,%rbp
  80042019b2:	48 83 ec 20          	sub    $0x20,%rsp
  80042019b6:	48 89 7d e8          	mov    %rdi,-0x18(%rbp)
	return KADDR(page2pa(pp));
  80042019ba:	48 8b 45 e8          	mov    -0x18(%rbp),%rax
  80042019be:	48 89 c7             	mov    %rax,%rdi
  80042019c1:	48 b8 18 19 20 04 80 	movabs $0x8004201918,%rax
  80042019c8:	00 00 00 
  80042019cb:	ff d0                	callq  *%rax
  80042019cd:	48 89 45 f8          	mov    %rax,-0x8(%rbp)
  80042019d1:	48 8b 45 f8          	mov    -0x8(%rbp),%rax
  80042019d5:	48 c1 e8 0c          	shr    $0xc,%rax
  80042019d9:	89 45 f4             	mov    %eax,-0xc(%rbp)
  80042019dc:	8b 55 f4             	mov    -0xc(%rbp),%edx
  80042019df:	48 b8 30 37 36 04 80 	movabs $0x8004363730,%rax
  80042019e6:	00 00 00 
  80042019e9:	48 8b 00             	mov    (%rax),%rax
  80042019ec:	48 39 c2             	cmp    %rax,%rdx
  80042019ef:	72 32                	jb     8004201a23 <page2kva+0x75>
  80042019f1:	48 8b 45 f8          	mov    -0x8(%rbp),%rax
  80042019f5:	48 89 c1             	mov    %rax,%rcx
  80042019f8:	48 ba e8 65 21 04 80 	movabs $0x80042165e8,%rdx
  80042019ff:	00 00 00 
  8004201a02:	be 5b 00 00 00       	mov    $0x5b,%esi
  8004201a07:	48 bf d7 65 21 04 80 	movabs $0x80042165d7,%rdi
  8004201a0e:	00 00 00 
  8004201a11:	b8 00 00 00 00       	mov    $0x0,%eax
  8004201a16:	49 b8 9b 04 20 04 80 	movabs $0x800420049b,%r8
  8004201a1d:	00 00 00 
  8004201a20:	41 ff d0             	callq  *%r8
  8004201a23:	48 ba 00 00 00 04 80 	movabs $0x8004000000,%rdx
  8004201a2a:	00 00 00 
  8004201a2d:	48 8b 45 f8          	mov    -0x8(%rbp),%rax
  8004201a31:	48 01 d0             	add    %rdx,%rax
}
  8004201a34:	c9                   	leaveq 
  8004201a35:	c3                   	retq   

0000008004201a36 <restrictive_type>:
   uint32_t length_low;
   uint32_t length_high;
   uint32_t type;
 } memory_map_t;

static __inline uint32_t restrictive_type(uint32_t t1, uint32_t t2) {
  8004201a36:	55                   	push   %rbp
  8004201a37:	48 89 e5             	mov    %rsp,%rbp
  8004201a3a:	48 83 ec 08          	sub    $0x8,%rsp
  8004201a3e:	89 7d fc             	mov    %edi,-0x4(%rbp)
  8004201a41:	89 75 f8             	mov    %esi,-0x8(%rbp)
  if(t1==MB_TYPE_BAD || t2==MB_TYPE_BAD)
  8004201a44:	83 7d fc 05          	cmpl   $0x5,-0x4(%rbp)
  8004201a48:	74 06                	je     8004201a50 <restrictive_type+0x1a>
  8004201a4a:	83 7d f8 05          	cmpl   $0x5,-0x8(%rbp)
  8004201a4e:	75 07                	jne    8004201a57 <restrictive_type+0x21>
    return MB_TYPE_BAD;
  8004201a50:	b8 05 00 00 00       	mov    $0x5,%eax
  8004201a55:	eb 3e                	jmp    8004201a95 <restrictive_type+0x5f>
  else if(t1==MB_TYPE_ACPI_NVS || t2==MB_TYPE_ACPI_NVS)
  8004201a57:	83 7d fc 04          	cmpl   $0x4,-0x4(%rbp)
  8004201a5b:	74 06                	je     8004201a63 <restrictive_type+0x2d>
  8004201a5d:	83 7d f8 04          	cmpl   $0x4,-0x8(%rbp)
  8004201a61:	75 07                	jne    8004201a6a <restrictive_type+0x34>
    return MB_TYPE_ACPI_NVS;
  8004201a63:	b8 04 00 00 00       	mov    $0x4,%eax
  8004201a68:	eb 2b                	jmp    8004201a95 <restrictive_type+0x5f>
  else if(t1==MB_TYPE_RESERVED || t2==MB_TYPE_RESERVED)
  8004201a6a:	83 7d fc 02          	cmpl   $0x2,-0x4(%rbp)
  8004201a6e:	74 06                	je     8004201a76 <restrictive_type+0x40>
  8004201a70:	83 7d f8 02          	cmpl   $0x2,-0x8(%rbp)
  8004201a74:	75 07                	jne    8004201a7d <restrictive_type+0x47>
    return MB_TYPE_RESERVED;
  8004201a76:	b8 02 00 00 00       	mov    $0x2,%eax
  8004201a7b:	eb 18                	jmp    8004201a95 <restrictive_type+0x5f>
  else if(t1==MB_TYPE_ACPI_RECLM || t2==MB_TYPE_ACPI_RECLM)
  8004201a7d:	83 7d fc 03          	cmpl   $0x3,-0x4(%rbp)
  8004201a81:	74 06                	je     8004201a89 <restrictive_type+0x53>
  8004201a83:	83 7d f8 03          	cmpl   $0x3,-0x8(%rbp)
  8004201a87:	75 07                	jne    8004201a90 <restrictive_type+0x5a>
    return MB_TYPE_ACPI_RECLM;
  8004201a89:	b8 03 00 00 00       	mov    $0x3,%eax
  8004201a8e:	eb 05                	jmp    8004201a95 <restrictive_type+0x5f>

  return MB_TYPE_USABLE;
  8004201a90:	b8 01 00 00 00       	mov    $0x1,%eax
}
  8004201a95:	c9                   	leaveq 
  8004201a96:	c3                   	retq   

0000008004201a97 <nvram_read>:
// Detect machine's physical memory setup.
// --------------------------------------------------------------

static int
nvram_read(int r)
{
  8004201a97:	55                   	push   %rbp
  8004201a98:	48 89 e5             	mov    %rsp,%rbp
  8004201a9b:	53                   	push   %rbx
  8004201a9c:	48 83 ec 18          	sub    $0x18,%rsp
  8004201aa0:	89 7d ec             	mov    %edi,-0x14(%rbp)
	return mc146818_read(r) | (mc146818_read(r + 1) << 8);
  8004201aa3:	8b 45 ec             	mov    -0x14(%rbp),%eax
  8004201aa6:	89 c7                	mov    %eax,%edi
  8004201aa8:	48 b8 b9 8a 20 04 80 	movabs $0x8004208ab9,%rax
  8004201aaf:	00 00 00 
  8004201ab2:	ff d0                	callq  *%rax
  8004201ab4:	89 c3                	mov    %eax,%ebx
  8004201ab6:	8b 45 ec             	mov    -0x14(%rbp),%eax
  8004201ab9:	83 c0 01             	add    $0x1,%eax
  8004201abc:	89 c7                	mov    %eax,%edi
  8004201abe:	48 b8 b9 8a 20 04 80 	movabs $0x8004208ab9,%rax
  8004201ac5:	00 00 00 
  8004201ac8:	ff d0                	callq  *%rax
  8004201aca:	c1 e0 08             	shl    $0x8,%eax
  8004201acd:	09 d8                	or     %ebx,%eax
}
  8004201acf:	48 83 c4 18          	add    $0x18,%rsp
  8004201ad3:	5b                   	pop    %rbx
  8004201ad4:	5d                   	pop    %rbp
  8004201ad5:	c3                   	retq   

0000008004201ad6 <multiboot_read>:

static void
multiboot_read(multiboot_info_t* mbinfo, size_t* basemem, size_t* extmem) {
  8004201ad6:	55                   	push   %rbp
  8004201ad7:	48 89 e5             	mov    %rsp,%rbp
  8004201ada:	53                   	push   %rbx
  8004201adb:	48 81 ec b8 00 00 00 	sub    $0xb8,%rsp
  8004201ae2:	48 89 bd 58 ff ff ff 	mov    %rdi,-0xa8(%rbp)
  8004201ae9:	48 89 b5 50 ff ff ff 	mov    %rsi,-0xb0(%rbp)
  8004201af0:	48 89 95 48 ff ff ff 	mov    %rdx,-0xb8(%rbp)
  8004201af7:	48 89 e0             	mov    %rsp,%rax
  8004201afa:	48 89 c3             	mov    %rax,%rbx
	int i;

	memory_map_t* mmap_base = (memory_map_t*)(uintptr_t)mbinfo->mmap_addr;
  8004201afd:	48 8b 85 58 ff ff ff 	mov    -0xa8(%rbp),%rax
  8004201b04:	8b 40 30             	mov    0x30(%rax),%eax
  8004201b07:	89 c0                	mov    %eax,%eax
  8004201b09:	48 89 45 d8          	mov    %rax,-0x28(%rbp)
 	memory_map_t* mmap_list[mbinfo->mmap_length/ (sizeof(memory_map_t))];
  8004201b0d:	48 8b 85 58 ff ff ff 	mov    -0xa8(%rbp),%rax
  8004201b14:	8b 40 2c             	mov    0x2c(%rax),%eax
  8004201b17:	ba ab aa aa aa       	mov    $0xaaaaaaab,%edx
  8004201b1c:	f7 e2                	mul    %edx
  8004201b1e:	89 d0                	mov    %edx,%eax
  8004201b20:	c1 e8 04             	shr    $0x4,%eax
  8004201b23:	89 c0                	mov    %eax,%eax
  8004201b25:	48 89 c2             	mov    %rax,%rdx
  8004201b28:	48 83 ea 01          	sub    $0x1,%rdx
  8004201b2c:	48 89 55 d0          	mov    %rdx,-0x30(%rbp)
  8004201b30:	49 89 c2             	mov    %rax,%r10
  8004201b33:	41 bb 00 00 00 00    	mov    $0x0,%r11d
  8004201b39:	49 89 c0             	mov    %rax,%r8
  8004201b3c:	41 b9 00 00 00 00    	mov    $0x0,%r9d
  8004201b42:	48 c1 e0 03          	shl    $0x3,%rax
  8004201b46:	48 8d 50 07          	lea    0x7(%rax),%rdx
  8004201b4a:	b8 10 00 00 00       	mov    $0x10,%eax
  8004201b4f:	48 83 e8 01          	sub    $0x1,%rax
  8004201b53:	48 01 d0             	add    %rdx,%rax
  8004201b56:	be 10 00 00 00       	mov    $0x10,%esi
  8004201b5b:	ba 00 00 00 00       	mov    $0x0,%edx
  8004201b60:	48 f7 f6             	div    %rsi
  8004201b63:	48 6b c0 10          	imul   $0x10,%rax,%rax
  8004201b67:	48 29 c4             	sub    %rax,%rsp
  8004201b6a:	48 89 e0             	mov    %rsp,%rax
  8004201b6d:	48 83 c0 07          	add    $0x7,%rax
  8004201b71:	48 c1 e8 03          	shr    $0x3,%rax
  8004201b75:	48 c1 e0 03          	shl    $0x3,%rax
  8004201b79:	48 89 45 c8          	mov    %rax,-0x38(%rbp)

	cprintf("\ne820 MEMORY MAP\n");
  8004201b7d:	48 bf 0b 66 21 04 80 	movabs $0x800421660b,%rdi
  8004201b84:	00 00 00 
  8004201b87:	b8 00 00 00 00       	mov    $0x0,%eax
  8004201b8c:	48 ba 0a 8e 20 04 80 	movabs $0x8004208e0a,%rdx
  8004201b93:	00 00 00 
  8004201b96:	ff d2                	callq  *%rdx
	for(i = 0; i < (mbinfo->mmap_length / (sizeof(memory_map_t))); i++) {
  8004201b98:	c7 45 ec 00 00 00 00 	movl   $0x0,-0x14(%rbp)
  8004201b9f:	e9 6c 01 00 00       	jmpq   8004201d10 <multiboot_read+0x23a>
		memory_map_t* mmap = &mmap_base[i];
  8004201ba4:	8b 45 ec             	mov    -0x14(%rbp),%eax
  8004201ba7:	48 63 d0             	movslq %eax,%rdx
  8004201baa:	48 89 d0             	mov    %rdx,%rax
  8004201bad:	48 01 c0             	add    %rax,%rax
  8004201bb0:	48 01 d0             	add    %rdx,%rax
  8004201bb3:	48 c1 e0 03          	shl    $0x3,%rax
  8004201bb7:	48 89 c2             	mov    %rax,%rdx
  8004201bba:	48 8b 45 d8          	mov    -0x28(%rbp),%rax
  8004201bbe:	48 01 d0             	add    %rdx,%rax
  8004201bc1:	48 89 45 c0          	mov    %rax,-0x40(%rbp)

		uint64_t addr = APPEND_HILO(mmap->base_addr_high, mmap->base_addr_low);
  8004201bc5:	48 8b 45 c0          	mov    -0x40(%rbp),%rax
  8004201bc9:	8b 40 08             	mov    0x8(%rax),%eax
  8004201bcc:	89 c0                	mov    %eax,%eax
  8004201bce:	48 c1 e0 20          	shl    $0x20,%rax
  8004201bd2:	48 89 c2             	mov    %rax,%rdx
  8004201bd5:	48 8b 45 c0          	mov    -0x40(%rbp),%rax
  8004201bd9:	8b 40 04             	mov    0x4(%rax),%eax
  8004201bdc:	89 c0                	mov    %eax,%eax
  8004201bde:	48 01 d0             	add    %rdx,%rax
  8004201be1:	48 89 45 b8          	mov    %rax,-0x48(%rbp)
		uint64_t len = APPEND_HILO(mmap->length_high, mmap->length_low);
  8004201be5:	48 8b 45 c0          	mov    -0x40(%rbp),%rax
  8004201be9:	8b 40 10             	mov    0x10(%rax),%eax
  8004201bec:	89 c0                	mov    %eax,%eax
  8004201bee:	48 c1 e0 20          	shl    $0x20,%rax
  8004201bf2:	48 89 c2             	mov    %rax,%rdx
  8004201bf5:	48 8b 45 c0          	mov    -0x40(%rbp),%rax
  8004201bf9:	8b 40 0c             	mov    0xc(%rax),%eax
  8004201bfc:	89 c0                	mov    %eax,%eax
  8004201bfe:	48 01 d0             	add    %rdx,%rax
  8004201c01:	48 89 45 b0          	mov    %rax,-0x50(%rbp)

		cprintf("size: %d, address: 0x%016x, length: 0x%016x, type: %x\n", mmap->size,
  8004201c05:	48 8b 45 c0          	mov    -0x40(%rbp),%rax
  8004201c09:	8b 70 14             	mov    0x14(%rax),%esi
  8004201c0c:	48 8b 45 c0          	mov    -0x40(%rbp),%rax
  8004201c10:	8b 00                	mov    (%rax),%eax
  8004201c12:	48 8b 4d b0          	mov    -0x50(%rbp),%rcx
  8004201c16:	48 8b 55 b8          	mov    -0x48(%rbp),%rdx
  8004201c1a:	41 89 f0             	mov    %esi,%r8d
  8004201c1d:	89 c6                	mov    %eax,%esi
  8004201c1f:	48 bf 20 66 21 04 80 	movabs $0x8004216620,%rdi
  8004201c26:	00 00 00 
  8004201c29:	b8 00 00 00 00       	mov    $0x0,%eax
  8004201c2e:	49 b9 0a 8e 20 04 80 	movabs $0x8004208e0a,%r9
  8004201c35:	00 00 00 
  8004201c38:	41 ff d1             	callq  *%r9
			addr, len, mmap->type);

		if(mmap->type > 5 || mmap->type < 1)
  8004201c3b:	48 8b 45 c0          	mov    -0x40(%rbp),%rax
  8004201c3f:	8b 40 14             	mov    0x14(%rax),%eax
  8004201c42:	83 f8 05             	cmp    $0x5,%eax
  8004201c45:	77 0b                	ja     8004201c52 <multiboot_read+0x17c>
  8004201c47:	48 8b 45 c0          	mov    -0x40(%rbp),%rax
  8004201c4b:	8b 40 14             	mov    0x14(%rax),%eax
  8004201c4e:	85 c0                	test   %eax,%eax
  8004201c50:	75 0b                	jne    8004201c5d <multiboot_read+0x187>
			mmap->type = MB_TYPE_RESERVED;
  8004201c52:	48 8b 45 c0          	mov    -0x40(%rbp),%rax
  8004201c56:	c7 40 14 02 00 00 00 	movl   $0x2,0x14(%rax)

		//Insert into the sorted list
		int j = 0;
  8004201c5d:	c7 45 e8 00 00 00 00 	movl   $0x0,-0x18(%rbp)
		for(;j<i;j++) {
  8004201c64:	e9 85 00 00 00       	jmpq   8004201cee <multiboot_read+0x218>
			memory_map_t* this = mmap_list[j];
  8004201c69:	48 8b 45 c8          	mov    -0x38(%rbp),%rax
  8004201c6d:	8b 55 e8             	mov    -0x18(%rbp),%edx
  8004201c70:	48 63 d2             	movslq %edx,%rdx
  8004201c73:	48 8b 04 d0          	mov    (%rax,%rdx,8),%rax
  8004201c77:	48 89 45 a8          	mov    %rax,-0x58(%rbp)
			uint64_t this_addr = APPEND_HILO(this->base_addr_high, this->base_addr_low);
  8004201c7b:	48 8b 45 a8          	mov    -0x58(%rbp),%rax
  8004201c7f:	8b 40 08             	mov    0x8(%rax),%eax
  8004201c82:	89 c0                	mov    %eax,%eax
  8004201c84:	48 c1 e0 20          	shl    $0x20,%rax
  8004201c88:	48 89 c2             	mov    %rax,%rdx
  8004201c8b:	48 8b 45 a8          	mov    -0x58(%rbp),%rax
  8004201c8f:	8b 40 04             	mov    0x4(%rax),%eax
  8004201c92:	89 c0                	mov    %eax,%eax
  8004201c94:	48 01 d0             	add    %rdx,%rax
  8004201c97:	48 89 45 a0          	mov    %rax,-0x60(%rbp)
			if(this_addr > addr) {
  8004201c9b:	48 8b 45 a0          	mov    -0x60(%rbp),%rax
  8004201c9f:	48 3b 45 b8          	cmp    -0x48(%rbp),%rax
  8004201ca3:	76 45                	jbe    8004201cea <multiboot_read+0x214>
				int last = i+1;
  8004201ca5:	8b 45 ec             	mov    -0x14(%rbp),%eax
  8004201ca8:	83 c0 01             	add    $0x1,%eax
  8004201cab:	89 45 e4             	mov    %eax,-0x1c(%rbp)
				while(last != j) {
  8004201cae:	eb 30                	jmp    8004201ce0 <multiboot_read+0x20a>
					*(mmap_list + last) = *(mmap_list + last - 1);
  8004201cb0:	48 8b 45 c8          	mov    -0x38(%rbp),%rax
  8004201cb4:	8b 55 e4             	mov    -0x1c(%rbp),%edx
  8004201cb7:	48 63 d2             	movslq %edx,%rdx
  8004201cba:	48 c1 e2 03          	shl    $0x3,%rdx
  8004201cbe:	48 01 c2             	add    %rax,%rdx
  8004201cc1:	48 8b 45 c8          	mov    -0x38(%rbp),%rax
  8004201cc5:	8b 4d e4             	mov    -0x1c(%rbp),%ecx
  8004201cc8:	48 63 c9             	movslq %ecx,%rcx
  8004201ccb:	48 c1 e1 03          	shl    $0x3,%rcx
  8004201ccf:	48 83 e9 08          	sub    $0x8,%rcx
  8004201cd3:	48 01 c8             	add    %rcx,%rax
  8004201cd6:	48 8b 00             	mov    (%rax),%rax
  8004201cd9:	48 89 02             	mov    %rax,(%rdx)
					last--;
  8004201cdc:	83 6d e4 01          	subl   $0x1,-0x1c(%rbp)
		for(;j<i;j++) {
			memory_map_t* this = mmap_list[j];
			uint64_t this_addr = APPEND_HILO(this->base_addr_high, this->base_addr_low);
			if(this_addr > addr) {
				int last = i+1;
				while(last != j) {
  8004201ce0:	8b 45 e4             	mov    -0x1c(%rbp),%eax
  8004201ce3:	3b 45 e8             	cmp    -0x18(%rbp),%eax
  8004201ce6:	75 c8                	jne    8004201cb0 <multiboot_read+0x1da>
					*(mmap_list + last) = *(mmap_list + last - 1);
					last--;
				}
				break;
  8004201ce8:	eb 10                	jmp    8004201cfa <multiboot_read+0x224>
		if(mmap->type > 5 || mmap->type < 1)
			mmap->type = MB_TYPE_RESERVED;

		//Insert into the sorted list
		int j = 0;
		for(;j<i;j++) {
  8004201cea:	83 45 e8 01          	addl   $0x1,-0x18(%rbp)
  8004201cee:	8b 45 e8             	mov    -0x18(%rbp),%eax
  8004201cf1:	3b 45 ec             	cmp    -0x14(%rbp),%eax
  8004201cf4:	0f 8c 6f ff ff ff    	jl     8004201c69 <multiboot_read+0x193>
					last--;
				}
				break;
			}
		}
		mmap_list[j] = mmap;
  8004201cfa:	48 8b 45 c8          	mov    -0x38(%rbp),%rax
  8004201cfe:	8b 55 e8             	mov    -0x18(%rbp),%edx
  8004201d01:	48 63 d2             	movslq %edx,%rdx
  8004201d04:	48 8b 4d c0          	mov    -0x40(%rbp),%rcx
  8004201d08:	48 89 0c d0          	mov    %rcx,(%rax,%rdx,8)

	memory_map_t* mmap_base = (memory_map_t*)(uintptr_t)mbinfo->mmap_addr;
 	memory_map_t* mmap_list[mbinfo->mmap_length/ (sizeof(memory_map_t))];

	cprintf("\ne820 MEMORY MAP\n");
	for(i = 0; i < (mbinfo->mmap_length / (sizeof(memory_map_t))); i++) {
  8004201d0c:	83 45 ec 01          	addl   $0x1,-0x14(%rbp)
  8004201d10:	8b 45 ec             	mov    -0x14(%rbp),%eax
  8004201d13:	48 63 c8             	movslq %eax,%rcx
  8004201d16:	48 8b 85 58 ff ff ff 	mov    -0xa8(%rbp),%rax
  8004201d1d:	8b 40 2c             	mov    0x2c(%rax),%eax
  8004201d20:	ba ab aa aa aa       	mov    $0xaaaaaaab,%edx
  8004201d25:	f7 e2                	mul    %edx
  8004201d27:	89 d0                	mov    %edx,%eax
  8004201d29:	c1 e8 04             	shr    $0x4,%eax
  8004201d2c:	89 c0                	mov    %eax,%eax
  8004201d2e:	48 39 c1             	cmp    %rax,%rcx
  8004201d31:	0f 82 6d fe ff ff    	jb     8004201ba4 <multiboot_read+0xce>
				break;
			}
		}
		mmap_list[j] = mmap;
	}
	cprintf("\n");
  8004201d37:	48 bf 57 66 21 04 80 	movabs $0x8004216657,%rdi
  8004201d3e:	00 00 00 
  8004201d41:	b8 00 00 00 00       	mov    $0x0,%eax
  8004201d46:	48 ba 0a 8e 20 04 80 	movabs $0x8004208e0a,%rdx
  8004201d4d:	00 00 00 
  8004201d50:	ff d2                	callq  *%rdx

	// Sanitize the list
	for(i=1;i < (mbinfo->mmap_length / (sizeof(memory_map_t))); i++) {
  8004201d52:	c7 45 ec 01 00 00 00 	movl   $0x1,-0x14(%rbp)
  8004201d59:	e9 93 01 00 00       	jmpq   8004201ef1 <multiboot_read+0x41b>
		memory_map_t* prev = mmap_list[i-1];
  8004201d5e:	8b 45 ec             	mov    -0x14(%rbp),%eax
  8004201d61:	8d 50 ff             	lea    -0x1(%rax),%edx
  8004201d64:	48 8b 45 c8          	mov    -0x38(%rbp),%rax
  8004201d68:	48 63 d2             	movslq %edx,%rdx
  8004201d6b:	48 8b 04 d0          	mov    (%rax,%rdx,8),%rax
  8004201d6f:	48 89 45 98          	mov    %rax,-0x68(%rbp)
		memory_map_t* this = mmap_list[i];
  8004201d73:	48 8b 45 c8          	mov    -0x38(%rbp),%rax
  8004201d77:	8b 55 ec             	mov    -0x14(%rbp),%edx
  8004201d7a:	48 63 d2             	movslq %edx,%rdx
  8004201d7d:	48 8b 04 d0          	mov    (%rax,%rdx,8),%rax
  8004201d81:	48 89 45 90          	mov    %rax,-0x70(%rbp)

		uint64_t this_addr = APPEND_HILO(this->base_addr_high, this->base_addr_low);
  8004201d85:	48 8b 45 90          	mov    -0x70(%rbp),%rax
  8004201d89:	8b 40 08             	mov    0x8(%rax),%eax
  8004201d8c:	89 c0                	mov    %eax,%eax
  8004201d8e:	48 c1 e0 20          	shl    $0x20,%rax
  8004201d92:	48 89 c2             	mov    %rax,%rdx
  8004201d95:	48 8b 45 90          	mov    -0x70(%rbp),%rax
  8004201d99:	8b 40 04             	mov    0x4(%rax),%eax
  8004201d9c:	89 c0                	mov    %eax,%eax
  8004201d9e:	48 01 d0             	add    %rdx,%rax
  8004201da1:	48 89 45 88          	mov    %rax,-0x78(%rbp)
		uint64_t prev_addr = APPEND_HILO(prev->base_addr_high, prev->base_addr_low);
  8004201da5:	48 8b 45 98          	mov    -0x68(%rbp),%rax
  8004201da9:	8b 40 08             	mov    0x8(%rax),%eax
  8004201dac:	89 c0                	mov    %eax,%eax
  8004201dae:	48 c1 e0 20          	shl    $0x20,%rax
  8004201db2:	48 89 c2             	mov    %rax,%rdx
  8004201db5:	48 8b 45 98          	mov    -0x68(%rbp),%rax
  8004201db9:	8b 40 04             	mov    0x4(%rax),%eax
  8004201dbc:	89 c0                	mov    %eax,%eax
  8004201dbe:	48 01 d0             	add    %rdx,%rax
  8004201dc1:	48 89 45 80          	mov    %rax,-0x80(%rbp)
		uint64_t prev_length = APPEND_HILO(prev->length_high, prev->length_low);
  8004201dc5:	48 8b 45 98          	mov    -0x68(%rbp),%rax
  8004201dc9:	8b 40 10             	mov    0x10(%rax),%eax
  8004201dcc:	89 c0                	mov    %eax,%eax
  8004201dce:	48 c1 e0 20          	shl    $0x20,%rax
  8004201dd2:	48 89 c2             	mov    %rax,%rdx
  8004201dd5:	48 8b 45 98          	mov    -0x68(%rbp),%rax
  8004201dd9:	8b 40 0c             	mov    0xc(%rax),%eax
  8004201ddc:	89 c0                	mov    %eax,%eax
  8004201dde:	48 01 d0             	add    %rdx,%rax
  8004201de1:	48 89 85 78 ff ff ff 	mov    %rax,-0x88(%rbp)
		uint64_t this_length = APPEND_HILO(this->length_high, this->length_low);
  8004201de8:	48 8b 45 90          	mov    -0x70(%rbp),%rax
  8004201dec:	8b 40 10             	mov    0x10(%rax),%eax
  8004201def:	89 c0                	mov    %eax,%eax
  8004201df1:	48 c1 e0 20          	shl    $0x20,%rax
  8004201df5:	48 89 c2             	mov    %rax,%rdx
  8004201df8:	48 8b 45 90          	mov    -0x70(%rbp),%rax
  8004201dfc:	8b 40 0c             	mov    0xc(%rax),%eax
  8004201dff:	89 c0                	mov    %eax,%eax
  8004201e01:	48 01 d0             	add    %rdx,%rax
  8004201e04:	48 89 85 70 ff ff ff 	mov    %rax,-0x90(%rbp)

		// Merge adjacent regions with same type
		if(prev_addr + prev_length == this_addr && prev->type == this->type) {
  8004201e0b:	48 8b 55 80          	mov    -0x80(%rbp),%rdx
  8004201e0f:	48 8b 85 78 ff ff ff 	mov    -0x88(%rbp),%rax
  8004201e16:	48 01 d0             	add    %rdx,%rax
  8004201e19:	48 3b 45 88          	cmp    -0x78(%rbp),%rax
  8004201e1d:	75 7c                	jne    8004201e9b <multiboot_read+0x3c5>
  8004201e1f:	48 8b 45 98          	mov    -0x68(%rbp),%rax
  8004201e23:	8b 50 14             	mov    0x14(%rax),%edx
  8004201e26:	48 8b 45 90          	mov    -0x70(%rbp),%rax
  8004201e2a:	8b 40 14             	mov    0x14(%rax),%eax
  8004201e2d:	39 c2                	cmp    %eax,%edx
  8004201e2f:	75 6a                	jne    8004201e9b <multiboot_read+0x3c5>
			this->length_low = (uint32_t)prev_length + this_length;
  8004201e31:	48 8b 85 78 ff ff ff 	mov    -0x88(%rbp),%rax
  8004201e38:	89 c2                	mov    %eax,%edx
  8004201e3a:	48 8b 85 70 ff ff ff 	mov    -0x90(%rbp),%rax
  8004201e41:	01 c2                	add    %eax,%edx
  8004201e43:	48 8b 45 90          	mov    -0x70(%rbp),%rax
  8004201e47:	89 50 0c             	mov    %edx,0xc(%rax)
			this->length_high = (uint32_t)((prev_length + this_length)>>32);
  8004201e4a:	48 8b 95 78 ff ff ff 	mov    -0x88(%rbp),%rdx
  8004201e51:	48 8b 85 70 ff ff ff 	mov    -0x90(%rbp),%rax
  8004201e58:	48 01 d0             	add    %rdx,%rax
  8004201e5b:	48 c1 e8 20          	shr    $0x20,%rax
  8004201e5f:	89 c2                	mov    %eax,%edx
  8004201e61:	48 8b 45 90          	mov    -0x70(%rbp),%rax
  8004201e65:	89 50 10             	mov    %edx,0x10(%rax)
			this->base_addr_low = prev->base_addr_low;
  8004201e68:	48 8b 45 98          	mov    -0x68(%rbp),%rax
  8004201e6c:	8b 50 04             	mov    0x4(%rax),%edx
  8004201e6f:	48 8b 45 90          	mov    -0x70(%rbp),%rax
  8004201e73:	89 50 04             	mov    %edx,0x4(%rax)
			this->base_addr_high = prev->base_addr_high;
  8004201e76:	48 8b 45 98          	mov    -0x68(%rbp),%rax
  8004201e7a:	8b 50 08             	mov    0x8(%rax),%edx
  8004201e7d:	48 8b 45 90          	mov    -0x70(%rbp),%rax
  8004201e81:	89 50 08             	mov    %edx,0x8(%rax)
			mmap_list[i-1] = NULL;
  8004201e84:	8b 45 ec             	mov    -0x14(%rbp),%eax
  8004201e87:	8d 50 ff             	lea    -0x1(%rax),%edx
  8004201e8a:	48 8b 45 c8          	mov    -0x38(%rbp),%rax
  8004201e8e:	48 63 d2             	movslq %edx,%rdx
  8004201e91:	48 c7 04 d0 00 00 00 	movq   $0x0,(%rax,%rdx,8)
  8004201e98:	00 
  8004201e99:	eb 52                	jmp    8004201eed <multiboot_read+0x417>
		} else if(prev_addr + prev_length > this_addr) {
  8004201e9b:	48 8b 55 80          	mov    -0x80(%rbp),%rdx
  8004201e9f:	48 8b 85 78 ff ff ff 	mov    -0x88(%rbp),%rax
  8004201ea6:	48 01 d0             	add    %rdx,%rax
  8004201ea9:	48 3b 45 88          	cmp    -0x78(%rbp),%rax
  8004201ead:	76 3e                	jbe    8004201eed <multiboot_read+0x417>
			//Overlapping regions
			uint32_t type = restrictive_type(prev->type, this->type);
  8004201eaf:	48 8b 45 90          	mov    -0x70(%rbp),%rax
  8004201eb3:	8b 50 14             	mov    0x14(%rax),%edx
  8004201eb6:	48 8b 45 98          	mov    -0x68(%rbp),%rax
  8004201eba:	8b 40 14             	mov    0x14(%rax),%eax
  8004201ebd:	89 d6                	mov    %edx,%esi
  8004201ebf:	89 c7                	mov    %eax,%edi
  8004201ec1:	48 b8 36 1a 20 04 80 	movabs $0x8004201a36,%rax
  8004201ec8:	00 00 00 
  8004201ecb:	ff d0                	callq  *%rax
  8004201ecd:	89 85 6c ff ff ff    	mov    %eax,-0x94(%rbp)
			prev->type = type;
  8004201ed3:	48 8b 45 98          	mov    -0x68(%rbp),%rax
  8004201ed7:	8b 95 6c ff ff ff    	mov    -0x94(%rbp),%edx
  8004201edd:	89 50 14             	mov    %edx,0x14(%rax)
			this->type = type;
  8004201ee0:	48 8b 45 90          	mov    -0x70(%rbp),%rax
  8004201ee4:	8b 95 6c ff ff ff    	mov    -0x94(%rbp),%edx
  8004201eea:	89 50 14             	mov    %edx,0x14(%rax)
		mmap_list[j] = mmap;
	}
	cprintf("\n");

	// Sanitize the list
	for(i=1;i < (mbinfo->mmap_length / (sizeof(memory_map_t))); i++) {
  8004201eed:	83 45 ec 01          	addl   $0x1,-0x14(%rbp)
  8004201ef1:	8b 45 ec             	mov    -0x14(%rbp),%eax
  8004201ef4:	48 63 c8             	movslq %eax,%rcx
  8004201ef7:	48 8b 85 58 ff ff ff 	mov    -0xa8(%rbp),%rax
  8004201efe:	8b 40 2c             	mov    0x2c(%rax),%eax
  8004201f01:	ba ab aa aa aa       	mov    $0xaaaaaaab,%edx
  8004201f06:	f7 e2                	mul    %edx
  8004201f08:	89 d0                	mov    %edx,%eax
  8004201f0a:	c1 e8 04             	shr    $0x4,%eax
  8004201f0d:	89 c0                	mov    %eax,%eax
  8004201f0f:	48 39 c1             	cmp    %rax,%rcx
  8004201f12:	0f 82 46 fe ff ff    	jb     8004201d5e <multiboot_read+0x288>
			prev->type = type;
			this->type = type;
		}
	}

	for(i=0;i < (mbinfo->mmap_length / (sizeof(memory_map_t))); i++) {
  8004201f18:	c7 45 ec 00 00 00 00 	movl   $0x0,-0x14(%rbp)
  8004201f1f:	e9 dc 00 00 00       	jmpq   8004202000 <multiboot_read+0x52a>
		memory_map_t* mmap = mmap_list[i];
  8004201f24:	48 8b 45 c8          	mov    -0x38(%rbp),%rax
  8004201f28:	8b 55 ec             	mov    -0x14(%rbp),%edx
  8004201f2b:	48 63 d2             	movslq %edx,%rdx
  8004201f2e:	48 8b 04 d0          	mov    (%rax,%rdx,8),%rax
  8004201f32:	48 89 85 60 ff ff ff 	mov    %rax,-0xa0(%rbp)
		if(mmap) {
  8004201f39:	48 83 bd 60 ff ff ff 	cmpq   $0x0,-0xa0(%rbp)
  8004201f40:	00 
  8004201f41:	0f 84 b5 00 00 00    	je     8004201ffc <multiboot_read+0x526>
			if(mmap->type == MB_TYPE_USABLE || mmap->type == MB_TYPE_ACPI_RECLM) {
  8004201f47:	48 8b 85 60 ff ff ff 	mov    -0xa0(%rbp),%rax
  8004201f4e:	8b 40 14             	mov    0x14(%rax),%eax
  8004201f51:	83 f8 01             	cmp    $0x1,%eax
  8004201f54:	74 13                	je     8004201f69 <multiboot_read+0x493>
  8004201f56:	48 8b 85 60 ff ff ff 	mov    -0xa0(%rbp),%rax
  8004201f5d:	8b 40 14             	mov    0x14(%rax),%eax
  8004201f60:	83 f8 03             	cmp    $0x3,%eax
  8004201f63:	0f 85 93 00 00 00    	jne    8004201ffc <multiboot_read+0x526>
				if(mmap->base_addr_low < 0x100000 && mmap->base_addr_high == 0)
  8004201f69:	48 8b 85 60 ff ff ff 	mov    -0xa0(%rbp),%rax
  8004201f70:	8b 40 04             	mov    0x4(%rax),%eax
  8004201f73:	3d ff ff 0f 00       	cmp    $0xfffff,%eax
  8004201f78:	77 49                	ja     8004201fc3 <multiboot_read+0x4ed>
  8004201f7a:	48 8b 85 60 ff ff ff 	mov    -0xa0(%rbp),%rax
  8004201f81:	8b 40 08             	mov    0x8(%rax),%eax
  8004201f84:	85 c0                	test   %eax,%eax
  8004201f86:	75 3b                	jne    8004201fc3 <multiboot_read+0x4ed>
					*basemem += APPEND_HILO(mmap->length_high, mmap->length_low);
  8004201f88:	48 8b 85 50 ff ff ff 	mov    -0xb0(%rbp),%rax
  8004201f8f:	48 8b 10             	mov    (%rax),%rdx
  8004201f92:	48 8b 85 60 ff ff ff 	mov    -0xa0(%rbp),%rax
  8004201f99:	8b 40 10             	mov    0x10(%rax),%eax
  8004201f9c:	89 c0                	mov    %eax,%eax
  8004201f9e:	48 c1 e0 20          	shl    $0x20,%rax
  8004201fa2:	48 89 c1             	mov    %rax,%rcx
  8004201fa5:	48 8b 85 60 ff ff ff 	mov    -0xa0(%rbp),%rax
  8004201fac:	8b 40 0c             	mov    0xc(%rax),%eax
  8004201faf:	89 c0                	mov    %eax,%eax
  8004201fb1:	48 01 c8             	add    %rcx,%rax
  8004201fb4:	48 01 c2             	add    %rax,%rdx
  8004201fb7:	48 8b 85 50 ff ff ff 	mov    -0xb0(%rbp),%rax
  8004201fbe:	48 89 10             	mov    %rdx,(%rax)
  8004201fc1:	eb 39                	jmp    8004201ffc <multiboot_read+0x526>
				else
					*extmem += APPEND_HILO(mmap->length_high, mmap->length_low);
  8004201fc3:	48 8b 85 48 ff ff ff 	mov    -0xb8(%rbp),%rax
  8004201fca:	48 8b 10             	mov    (%rax),%rdx
  8004201fcd:	48 8b 85 60 ff ff ff 	mov    -0xa0(%rbp),%rax
  8004201fd4:	8b 40 10             	mov    0x10(%rax),%eax
  8004201fd7:	89 c0                	mov    %eax,%eax
  8004201fd9:	48 c1 e0 20          	shl    $0x20,%rax
  8004201fdd:	48 89 c1             	mov    %rax,%rcx
  8004201fe0:	48 8b 85 60 ff ff ff 	mov    -0xa0(%rbp),%rax
  8004201fe7:	8b 40 0c             	mov    0xc(%rax),%eax
  8004201fea:	89 c0                	mov    %eax,%eax
  8004201fec:	48 01 c8             	add    %rcx,%rax
  8004201fef:	48 01 c2             	add    %rax,%rdx
  8004201ff2:	48 8b 85 48 ff ff ff 	mov    -0xb8(%rbp),%rax
  8004201ff9:	48 89 10             	mov    %rdx,(%rax)
			prev->type = type;
			this->type = type;
		}
	}

	for(i=0;i < (mbinfo->mmap_length / (sizeof(memory_map_t))); i++) {
  8004201ffc:	83 45 ec 01          	addl   $0x1,-0x14(%rbp)
  8004202000:	8b 45 ec             	mov    -0x14(%rbp),%eax
  8004202003:	48 63 c8             	movslq %eax,%rcx
  8004202006:	48 8b 85 58 ff ff ff 	mov    -0xa8(%rbp),%rax
  800420200d:	8b 40 2c             	mov    0x2c(%rax),%eax
  8004202010:	ba ab aa aa aa       	mov    $0xaaaaaaab,%edx
  8004202015:	f7 e2                	mul    %edx
  8004202017:	89 d0                	mov    %edx,%eax
  8004202019:	c1 e8 04             	shr    $0x4,%eax
  800420201c:	89 c0                	mov    %eax,%eax
  800420201e:	48 39 c1             	cmp    %rax,%rcx
  8004202021:	0f 82 fd fe ff ff    	jb     8004201f24 <multiboot_read+0x44e>
  8004202027:	48 89 dc             	mov    %rbx,%rsp
				else
					*extmem += APPEND_HILO(mmap->length_high, mmap->length_low);
			}
		}
	}
}
  800420202a:	90                   	nop
  800420202b:	48 8b 5d f8          	mov    -0x8(%rbp),%rbx
  800420202f:	c9                   	leaveq 
  8004202030:	c3                   	retq   

0000008004202031 <i386_detect_memory>:

static void
i386_detect_memory(void)
{
  8004202031:	55                   	push   %rbp
  8004202032:	48 89 e5             	mov    %rsp,%rbp
  8004202035:	48 83 ec 50          	sub    $0x50,%rsp
	size_t npages_extmem;
	size_t basemem = 0;
  8004202039:	48 c7 45 c0 00 00 00 	movq   $0x0,-0x40(%rbp)
  8004202040:	00 
	size_t extmem = 0;
  8004202041:	48 c7 45 b8 00 00 00 	movq   $0x0,-0x48(%rbp)
  8004202048:	00 

	// Check if the bootloader passed us a multiboot structure
	extern char multiboot_info[];
	uintptr_t* mbp = (uintptr_t*)multiboot_info;
  8004202049:	48 b8 00 70 10 00 00 	movabs $0x107000,%rax
  8004202050:	00 00 00 
  8004202053:	48 89 45 f0          	mov    %rax,-0x10(%rbp)
	multiboot_info_t * mbinfo = (multiboot_info_t*)*mbp;
  8004202057:	48 8b 45 f0          	mov    -0x10(%rbp),%rax
  800420205b:	48 8b 00             	mov    (%rax),%rax
  800420205e:	48 89 45 e8          	mov    %rax,-0x18(%rbp)

	if(mbinfo && (mbinfo->flags & MB_FLAG_MMAP)) {
  8004202062:	48 83 7d e8 00       	cmpq   $0x0,-0x18(%rbp)
  8004202067:	74 2d                	je     8004202096 <i386_detect_memory+0x65>
  8004202069:	48 8b 45 e8          	mov    -0x18(%rbp),%rax
  800420206d:	8b 00                	mov    (%rax),%eax
  800420206f:	83 e0 40             	and    $0x40,%eax
  8004202072:	85 c0                	test   %eax,%eax
  8004202074:	74 20                	je     8004202096 <i386_detect_memory+0x65>
		multiboot_read(mbinfo, &basemem, &extmem);
  8004202076:	48 8d 55 b8          	lea    -0x48(%rbp),%rdx
  800420207a:	48 8d 4d c0          	lea    -0x40(%rbp),%rcx
  800420207e:	48 8b 45 e8          	mov    -0x18(%rbp),%rax
  8004202082:	48 89 ce             	mov    %rcx,%rsi
  8004202085:	48 89 c7             	mov    %rax,%rdi
  8004202088:	48 b8 d6 1a 20 04 80 	movabs $0x8004201ad6,%rax
  800420208f:	00 00 00 
  8004202092:	ff d0                	callq  *%rax
  8004202094:	eb 34                	jmp    80042020ca <i386_detect_memory+0x99>
	} else {
		basemem = (nvram_read(NVRAM_BASELO) * 1024);
  8004202096:	bf 15 00 00 00       	mov    $0x15,%edi
  800420209b:	48 b8 97 1a 20 04 80 	movabs $0x8004201a97,%rax
  80042020a2:	00 00 00 
  80042020a5:	ff d0                	callq  *%rax
  80042020a7:	c1 e0 0a             	shl    $0xa,%eax
  80042020aa:	48 98                	cltq   
  80042020ac:	48 89 45 c0          	mov    %rax,-0x40(%rbp)
		extmem = (nvram_read(NVRAM_EXTLO) * 1024);
  80042020b0:	bf 17 00 00 00       	mov    $0x17,%edi
  80042020b5:	48 b8 97 1a 20 04 80 	movabs $0x8004201a97,%rax
  80042020bc:	00 00 00 
  80042020bf:	ff d0                	callq  *%rax
  80042020c1:	c1 e0 0a             	shl    $0xa,%eax
  80042020c4:	48 98                	cltq   
  80042020c6:	48 89 45 b8          	mov    %rax,-0x48(%rbp)
	}

	assert(basemem);
  80042020ca:	48 8b 45 c0          	mov    -0x40(%rbp),%rax
  80042020ce:	48 85 c0             	test   %rax,%rax
  80042020d1:	75 35                	jne    8004202108 <i386_detect_memory+0xd7>
  80042020d3:	48 b9 59 66 21 04 80 	movabs $0x8004216659,%rcx
  80042020da:	00 00 00 
  80042020dd:	48 ba 61 66 21 04 80 	movabs $0x8004216661,%rdx
  80042020e4:	00 00 00 
  80042020e7:	be 8e 00 00 00       	mov    $0x8e,%esi
  80042020ec:	48 bf 76 66 21 04 80 	movabs $0x8004216676,%rdi
  80042020f3:	00 00 00 
  80042020f6:	b8 00 00 00 00       	mov    $0x0,%eax
  80042020fb:	49 b8 9b 04 20 04 80 	movabs $0x800420049b,%r8
  8004202102:	00 00 00 
  8004202105:	41 ff d0             	callq  *%r8

	npages_basemem = basemem / PGSIZE;
  8004202108:	48 8b 45 c0          	mov    -0x40(%rbp),%rax
  800420210c:	48 c1 e8 0c          	shr    $0xc,%rax
  8004202110:	48 89 c2             	mov    %rax,%rdx
  8004202113:	48 b8 30 22 36 04 80 	movabs $0x8004362230,%rax
  800420211a:	00 00 00 
  800420211d:	48 89 10             	mov    %rdx,(%rax)
	npages_extmem = extmem / PGSIZE;
  8004202120:	48 8b 45 b8          	mov    -0x48(%rbp),%rax
  8004202124:	48 c1 e8 0c          	shr    $0xc,%rax
  8004202128:	48 89 45 f8          	mov    %rax,-0x8(%rbp)

	if(nvram_read(NVRAM_EXTLO) == 0xffff) {
  800420212c:	bf 17 00 00 00       	mov    $0x17,%edi
  8004202131:	48 b8 97 1a 20 04 80 	movabs $0x8004201a97,%rax
  8004202138:	00 00 00 
  800420213b:	ff d0                	callq  *%rax
  800420213d:	3d ff ff 00 00       	cmp    $0xffff,%eax
  8004202142:	75 2c                	jne    8004202170 <i386_detect_memory+0x13f>
		// EXTMEM > 16M in blocks of 64k
		size_t pextmem = nvram_read(NVRAM_EXTGT16LO) * (64 * 1024);
  8004202144:	bf 34 00 00 00       	mov    $0x34,%edi
  8004202149:	48 b8 97 1a 20 04 80 	movabs $0x8004201a97,%rax
  8004202150:	00 00 00 
  8004202153:	ff d0                	callq  *%rax
  8004202155:	c1 e0 10             	shl    $0x10,%eax
  8004202158:	48 98                	cltq   
  800420215a:	48 89 45 e0          	mov    %rax,-0x20(%rbp)
		npages_extmem = ((16 * 1024 * 1024) + pextmem - (1 * 1024 * 1024)) / PGSIZE;
  800420215e:	48 8b 45 e0          	mov    -0x20(%rbp),%rax
  8004202162:	48 05 00 00 f0 00    	add    $0xf00000,%rax
  8004202168:	48 c1 e8 0c          	shr    $0xc,%rax
  800420216c:	48 89 45 f8          	mov    %rax,-0x8(%rbp)
	}

	// Calculate the number of physical pages available in both base
	// and extended memory.
	if (npages_extmem)
  8004202170:	48 83 7d f8 00       	cmpq   $0x0,-0x8(%rbp)
  8004202175:	74 1a                	je     8004202191 <i386_detect_memory+0x160>
		npages = (EXTPHYSMEM / PGSIZE) + npages_extmem;
  8004202177:	48 8b 45 f8          	mov    -0x8(%rbp),%rax
  800420217b:	48 8d 90 00 01 00 00 	lea    0x100(%rax),%rdx
  8004202182:	48 b8 30 37 36 04 80 	movabs $0x8004363730,%rax
  8004202189:	00 00 00 
  800420218c:	48 89 10             	mov    %rdx,(%rax)
  800420218f:	eb 1a                	jmp    80042021ab <i386_detect_memory+0x17a>
	else
		npages = npages_basemem;
  8004202191:	48 b8 30 22 36 04 80 	movabs $0x8004362230,%rax
  8004202198:	00 00 00 
  800420219b:	48 8b 10             	mov    (%rax),%rdx
  800420219e:	48 b8 30 37 36 04 80 	movabs $0x8004363730,%rax
  80042021a5:	00 00 00 
  80042021a8:	48 89 10             	mov    %rdx,(%rax)

	cprintf("Physical memory: %uM available, base = %uK, extended = %uK, npages = %d\n",
  80042021ab:	48 b8 30 37 36 04 80 	movabs $0x8004363730,%rax
  80042021b2:	00 00 00 
  80042021b5:	48 8b 30             	mov    (%rax),%rsi
		npages * PGSIZE / (1024 * 1024),
		npages_basemem * PGSIZE / 1024,
		npages_extmem * PGSIZE / 1024,
  80042021b8:	48 8b 45 f8          	mov    -0x8(%rbp),%rax
  80042021bc:	48 c1 e0 0c          	shl    $0xc,%rax
	if (npages_extmem)
		npages = (EXTPHYSMEM / PGSIZE) + npages_extmem;
	else
		npages = npages_basemem;

	cprintf("Physical memory: %uM available, base = %uK, extended = %uK, npages = %d\n",
  80042021c0:	48 c1 e8 0a          	shr    $0xa,%rax
  80042021c4:	48 89 c1             	mov    %rax,%rcx
		npages * PGSIZE / (1024 * 1024),
		npages_basemem * PGSIZE / 1024,
  80042021c7:	48 b8 30 22 36 04 80 	movabs $0x8004362230,%rax
  80042021ce:	00 00 00 
  80042021d1:	48 8b 00             	mov    (%rax),%rax
  80042021d4:	48 c1 e0 0c          	shl    $0xc,%rax
	if (npages_extmem)
		npages = (EXTPHYSMEM / PGSIZE) + npages_extmem;
	else
		npages = npages_basemem;

	cprintf("Physical memory: %uM available, base = %uK, extended = %uK, npages = %d\n",
  80042021d8:	48 c1 e8 0a          	shr    $0xa,%rax
  80042021dc:	48 89 c2             	mov    %rax,%rdx
		npages * PGSIZE / (1024 * 1024),
  80042021df:	48 b8 30 37 36 04 80 	movabs $0x8004363730,%rax
  80042021e6:	00 00 00 
  80042021e9:	48 8b 00             	mov    (%rax),%rax
  80042021ec:	48 c1 e0 0c          	shl    $0xc,%rax
	if (npages_extmem)
		npages = (EXTPHYSMEM / PGSIZE) + npages_extmem;
	else
		npages = npages_basemem;

	cprintf("Physical memory: %uM available, base = %uK, extended = %uK, npages = %d\n",
  80042021f0:	48 c1 e8 14          	shr    $0x14,%rax
  80042021f4:	49 89 f0             	mov    %rsi,%r8
  80042021f7:	48 89 c6             	mov    %rax,%rsi
  80042021fa:	48 bf 88 66 21 04 80 	movabs $0x8004216688,%rdi
  8004202201:	00 00 00 
  8004202204:	b8 00 00 00 00       	mov    $0x0,%eax
  8004202209:	49 b9 0a 8e 20 04 80 	movabs $0x8004208e0a,%r9
  8004202210:	00 00 00 
  8004202213:	41 ff d1             	callq  *%r9
	//JOS 64 pages are limited by the size of both the UPAGES
	//  virtual address space, and the range from KERNBASE to UVPT.
	//
	// NB: qemu seems to have a bug that crashes the host system on 13.10 if you try to
	//     max out memory
	uint64_t upages_max = (ULIM - UPAGES) / sizeof(struct PageInfo);
  8004202216:	48 c7 45 d8 00 00 32 	movq   $0x320000,-0x28(%rbp)
  800420221d:	00 
	uint64_t kern_mem_max = (UVPT - KERNBASE) / PGSIZE;
  800420221e:	48 c7 45 d0 00 c0 ff 	movq   $0x7ffc000,-0x30(%rbp)
  8004202225:	07 
	cprintf("Pages limited to %llu by upage address range (%uMB), Pages limited to %llu by remapped phys mem (%uMB)\n",
		upages_max, ((upages_max * PGSIZE) / (1024 * 1024)),
		kern_mem_max, kern_mem_max * PGSIZE / (1024 * 1024));
  8004202226:	48 8b 45 d0          	mov    -0x30(%rbp),%rax
  800420222a:	48 c1 e0 0c          	shl    $0xc,%rax
	//
	// NB: qemu seems to have a bug that crashes the host system on 13.10 if you try to
	//     max out memory
	uint64_t upages_max = (ULIM - UPAGES) / sizeof(struct PageInfo);
	uint64_t kern_mem_max = (UVPT - KERNBASE) / PGSIZE;
	cprintf("Pages limited to %llu by upage address range (%uMB), Pages limited to %llu by remapped phys mem (%uMB)\n",
  800420222e:	48 c1 e8 14          	shr    $0x14,%rax
  8004202232:	48 89 c1             	mov    %rax,%rcx
		upages_max, ((upages_max * PGSIZE) / (1024 * 1024)),
  8004202235:	48 8b 45 d8          	mov    -0x28(%rbp),%rax
  8004202239:	48 c1 e0 0c          	shl    $0xc,%rax
	//
	// NB: qemu seems to have a bug that crashes the host system on 13.10 if you try to
	//     max out memory
	uint64_t upages_max = (ULIM - UPAGES) / sizeof(struct PageInfo);
	uint64_t kern_mem_max = (UVPT - KERNBASE) / PGSIZE;
	cprintf("Pages limited to %llu by upage address range (%uMB), Pages limited to %llu by remapped phys mem (%uMB)\n",
  800420223d:	48 c1 e8 14          	shr    $0x14,%rax
  8004202241:	48 89 c6             	mov    %rax,%rsi
  8004202244:	48 8b 55 d0          	mov    -0x30(%rbp),%rdx
  8004202248:	48 8b 45 d8          	mov    -0x28(%rbp),%rax
  800420224c:	49 89 c8             	mov    %rcx,%r8
  800420224f:	48 89 d1             	mov    %rdx,%rcx
  8004202252:	48 89 f2             	mov    %rsi,%rdx
  8004202255:	48 89 c6             	mov    %rax,%rsi
  8004202258:	48 bf d8 66 21 04 80 	movabs $0x80042166d8,%rdi
  800420225f:	00 00 00 
  8004202262:	b8 00 00 00 00       	mov    $0x0,%eax
  8004202267:	49 b9 0a 8e 20 04 80 	movabs $0x8004208e0a,%r9
  800420226e:	00 00 00 
  8004202271:	41 ff d1             	callq  *%r9
		upages_max, ((upages_max * PGSIZE) / (1024 * 1024)),
		kern_mem_max, kern_mem_max * PGSIZE / (1024 * 1024));
	uint64_t max_npages = upages_max < kern_mem_max ? upages_max : kern_mem_max;
  8004202274:	48 8b 45 d8          	mov    -0x28(%rbp),%rax
  8004202278:	48 39 45 d0          	cmp    %rax,-0x30(%rbp)
  800420227c:	48 0f 46 45 d0       	cmovbe -0x30(%rbp),%rax
  8004202281:	48 89 45 c8          	mov    %rax,-0x38(%rbp)

	if(npages > max_npages) {
  8004202285:	48 b8 30 37 36 04 80 	movabs $0x8004363730,%rax
  800420228c:	00 00 00 
  800420228f:	48 8b 00             	mov    (%rax),%rax
  8004202292:	48 3b 45 c8          	cmp    -0x38(%rbp),%rax
  8004202296:	76 3a                	jbe    80042022d2 <i386_detect_memory+0x2a1>
		npages = max_npages - 1024;
  8004202298:	48 8b 45 c8          	mov    -0x38(%rbp),%rax
  800420229c:	48 8d 90 00 fc ff ff 	lea    -0x400(%rax),%rdx
  80042022a3:	48 b8 30 37 36 04 80 	movabs $0x8004363730,%rax
  80042022aa:	00 00 00 
  80042022ad:	48 89 10             	mov    %rdx,(%rax)
		cprintf("Using only %uK of the available memory.\n", max_npages);
  80042022b0:	48 8b 45 c8          	mov    -0x38(%rbp),%rax
  80042022b4:	48 89 c6             	mov    %rax,%rsi
  80042022b7:	48 bf 40 67 21 04 80 	movabs $0x8004216740,%rdi
  80042022be:	00 00 00 
  80042022c1:	b8 00 00 00 00       	mov    $0x0,%eax
  80042022c6:	48 ba 0a 8e 20 04 80 	movabs $0x8004208e0a,%rdx
  80042022cd:	00 00 00 
  80042022d0:	ff d2                	callq  *%rdx
	}
}
  80042022d2:	90                   	nop
  80042022d3:	c9                   	leaveq 
  80042022d4:	c3                   	retq   

00000080042022d5 <boot_alloc>:
// If we're out of memory, boot_alloc should panic.
// This function may ONLY be used during initialization,
// before the page_free_list list has been set up.
static void *
boot_alloc(uint32_t n)
{
  80042022d5:	55                   	push   %rbp
  80042022d6:	48 89 e5             	mov    %rsp,%rbp
  80042022d9:	48 83 ec 38          	sub    $0x38,%rsp
  80042022dd:	89 7d cc             	mov    %edi,-0x34(%rbp)
	// Initialize nextfree if this is the first time.
	// 'end' is a magic symbol automatically generated by the linker,
	// which points to the end of the kernel's bss segment:
	// the first virtual address that the linker did *not* assign
	// to any kernel code or global variables.
	if (!nextfree) {
  80042022e0:	48 b8 48 22 36 04 80 	movabs $0x8004362248,%rax
  80042022e7:	00 00 00 
  80042022ea:	48 8b 00             	mov    (%rax),%rax
  80042022ed:	48 85 c0             	test   %rax,%rax
  80042022f0:	75 45                	jne    8004202337 <boot_alloc+0x62>
		extern char end[];
		nextfree = ROUNDUP((char *) end, PGSIZE);
  80042022f2:	48 c7 45 f8 00 10 00 	movq   $0x1000,-0x8(%rbp)
  80042022f9:	00 
  80042022fa:	48 b8 10 60 3e 04 80 	movabs $0x80043e6010,%rax
  8004202301:	00 00 00 
  8004202304:	48 8d 50 ff          	lea    -0x1(%rax),%rdx
  8004202308:	48 8b 45 f8          	mov    -0x8(%rbp),%rax
  800420230c:	48 01 d0             	add    %rdx,%rax
  800420230f:	48 89 45 f0          	mov    %rax,-0x10(%rbp)
  8004202313:	48 8b 45 f0          	mov    -0x10(%rbp),%rax
  8004202317:	ba 00 00 00 00       	mov    $0x0,%edx
  800420231c:	48 f7 75 f8          	divq   -0x8(%rbp)
  8004202320:	48 8b 45 f0          	mov    -0x10(%rbp),%rax
  8004202324:	48 29 d0             	sub    %rdx,%rax
  8004202327:	48 89 c2             	mov    %rax,%rdx
  800420232a:	48 b8 48 22 36 04 80 	movabs $0x8004362248,%rax
  8004202331:	00 00 00 
  8004202334:	48 89 10             	mov    %rdx,(%rax)
	//
	// LAB 2: Your code here.

	assert(n>=0);

	result = nextfree; 		//preserve original next free to return
  8004202337:	48 b8 48 22 36 04 80 	movabs $0x8004362248,%rax
  800420233e:	00 00 00 
  8004202341:	48 8b 00             	mov    (%rax),%rax
  8004202344:	48 89 45 e8          	mov    %rax,-0x18(%rbp)
	if (n>0){			//in case more memory has to be allocated
  8004202348:	83 7d cc 00          	cmpl   $0x0,-0x34(%rbp)
  800420234c:	74 51                	je     800420239f <boot_alloc+0xca>
		nextfree = ROUNDUP((char *)(nextfree+n), PGSIZE);	//increment nextfree
  800420234e:	48 c7 45 e0 00 10 00 	movq   $0x1000,-0x20(%rbp)
  8004202355:	00 
  8004202356:	48 b8 48 22 36 04 80 	movabs $0x8004362248,%rax
  800420235d:	00 00 00 
  8004202360:	48 8b 10             	mov    (%rax),%rdx
  8004202363:	8b 45 cc             	mov    -0x34(%rbp),%eax
  8004202366:	48 01 d0             	add    %rdx,%rax
  8004202369:	48 89 c2             	mov    %rax,%rdx
  800420236c:	48 8b 45 e0          	mov    -0x20(%rbp),%rax
  8004202370:	48 01 d0             	add    %rdx,%rax
  8004202373:	48 83 e8 01          	sub    $0x1,%rax
  8004202377:	48 89 45 d8          	mov    %rax,-0x28(%rbp)
  800420237b:	48 8b 45 d8          	mov    -0x28(%rbp),%rax
  800420237f:	ba 00 00 00 00       	mov    $0x0,%edx
  8004202384:	48 f7 75 e0          	divq   -0x20(%rbp)
  8004202388:	48 8b 45 d8          	mov    -0x28(%rbp),%rax
  800420238c:	48 29 d0             	sub    %rdx,%rax
  800420238f:	48 89 c2             	mov    %rax,%rdx
  8004202392:	48 b8 48 22 36 04 80 	movabs $0x8004362248,%rax
  8004202399:	00 00 00 
  800420239c:	48 89 10             	mov    %rdx,(%rax)
	}
	return result;
  800420239f:	48 8b 45 e8          	mov    -0x18(%rbp),%rax
}
  80042023a3:	c9                   	leaveq 
  80042023a4:	c3                   	retq   

00000080042023a5 <x64_vm_init>:
//
// From UTOP to ULIM, the user is allowed to read but not write.
// Above ULIM the user cannot read or write.
void
x64_vm_init(void)
{
  80042023a5:	55                   	push   %rbp
  80042023a6:	48 89 e5             	mov    %rsp,%rbp
  80042023a9:	48 83 ec 60          	sub    $0x60,%rsp
	pml4e_t* pml4e;
	uint32_t cr0;
	uint64_t n;
	int r;
	struct Env *env;
	i386_detect_memory();
  80042023ad:	48 b8 31 20 20 04 80 	movabs $0x8004202031,%rax
  80042023b4:	00 00 00 
  80042023b7:	ff d0                	callq  *%rax
	//panic("i386_vm_init: This function is not finished\n");
	//////////////////////////////////////////////////////////////////////
	// create initial page directory.
	//panic("x64_vm_init: this function is not finished\n");
	pml4e = boot_alloc(PGSIZE);
  80042023b9:	bf 00 10 00 00       	mov    $0x1000,%edi
  80042023be:	48 b8 d5 22 20 04 80 	movabs $0x80042022d5,%rax
  80042023c5:	00 00 00 
  80042023c8:	ff d0                	callq  *%rax
  80042023ca:	48 89 45 f8          	mov    %rax,-0x8(%rbp)
	memset(pml4e, 0, PGSIZE);
  80042023ce:	48 8b 45 f8          	mov    -0x8(%rbp),%rax
  80042023d2:	ba 00 10 00 00       	mov    $0x1000,%edx
  80042023d7:	be 00 00 00 00       	mov    $0x0,%esi
  80042023dc:	48 89 c7             	mov    %rax,%rdi
  80042023df:	48 b8 77 ec 20 04 80 	movabs $0x800420ec77,%rax
  80042023e6:	00 00 00 
  80042023e9:	ff d0                	callq  *%rax
	boot_pml4e = pml4e;
  80042023eb:	48 b8 28 37 36 04 80 	movabs $0x8004363728,%rax
  80042023f2:	00 00 00 
  80042023f5:	48 8b 55 f8          	mov    -0x8(%rbp),%rdx
  80042023f9:	48 89 10             	mov    %rdx,(%rax)
	boot_cr3 = PADDR(pml4e);
  80042023fc:	48 8b 45 f8          	mov    -0x8(%rbp),%rax
  8004202400:	48 89 45 f0          	mov    %rax,-0x10(%rbp)
  8004202404:	48 b8 ff ff ff 03 80 	movabs $0x8003ffffff,%rax
  800420240b:	00 00 00 
  800420240e:	48 39 45 f0          	cmp    %rax,-0x10(%rbp)
  8004202412:	77 32                	ja     8004202446 <x64_vm_init+0xa1>
  8004202414:	48 8b 45 f0          	mov    -0x10(%rbp),%rax
  8004202418:	48 89 c1             	mov    %rax,%rcx
  800420241b:	48 ba 70 67 21 04 80 	movabs $0x8004216770,%rdx
  8004202422:	00 00 00 
  8004202425:	be 0b 01 00 00       	mov    $0x10b,%esi
  800420242a:	48 bf 76 66 21 04 80 	movabs $0x8004216676,%rdi
  8004202431:	00 00 00 
  8004202434:	b8 00 00 00 00       	mov    $0x0,%eax
  8004202439:	49 b8 9b 04 20 04 80 	movabs $0x800420049b,%r8
  8004202440:	00 00 00 
  8004202443:	41 ff d0             	callq  *%r8
  8004202446:	48 ba 00 00 00 fc 7f 	movabs $0xffffff7ffc000000,%rdx
  800420244d:	ff ff ff 
  8004202450:	48 8b 45 f0          	mov    -0x10(%rbp),%rax
  8004202454:	48 01 c2             	add    %rax,%rdx
  8004202457:	48 b8 20 37 36 04 80 	movabs $0x8004363720,%rax
  800420245e:	00 00 00 
  8004202461:	48 89 10             	mov    %rdx,(%rax)
	// The kernel uses this array to keep track of physical pages: for
	// each physical page, there is a corresponding struct PageInfo in this
	// array.  'npages' is the number of physical pages in memory.
	// Your code goes here:

	pages = boot_alloc(npages*sizeof(struct PageInfo));
  8004202464:	48 b8 30 37 36 04 80 	movabs $0x8004363730,%rax
  800420246b:	00 00 00 
  800420246e:	48 8b 00             	mov    (%rax),%rax
  8004202471:	c1 e0 04             	shl    $0x4,%eax
  8004202474:	89 c7                	mov    %eax,%edi
  8004202476:	48 b8 d5 22 20 04 80 	movabs $0x80042022d5,%rax
  800420247d:	00 00 00 
  8004202480:	ff d0                	callq  *%rax
  8004202482:	48 89 c2             	mov    %rax,%rdx
  8004202485:	48 b8 38 37 36 04 80 	movabs $0x8004363738,%rax
  800420248c:	00 00 00 
  800420248f:	48 89 10             	mov    %rdx,(%rax)

	//////////////////////////////////////////////////////////////////////
	// Make 'envs' point to an array of size 'NENV' of 'struct Env'.
	// LAB 3: Your code here.i

	envs = boot_alloc(NENV*sizeof(struct Env));
  8004202492:	bf 00 80 04 00       	mov    $0x48000,%edi
  8004202497:	48 b8 d5 22 20 04 80 	movabs $0x80042022d5,%rax
  800420249e:	00 00 00 
  80042024a1:	ff d0                	callq  *%rax
  80042024a3:	48 89 c2             	mov    %rax,%rdx
  80042024a6:	48 b8 50 22 36 04 80 	movabs $0x8004362250,%rax
  80042024ad:	00 00 00 
  80042024b0:	48 89 10             	mov    %rdx,(%rax)
	//////////////////////////////////////////////////////////////////////
	// Now that we've allocated the initial kernel data structures, we set
	// up the list of free physical pages. Once we've done so, all further
	// memory management will go through the page_* functions. In
	// particular, we can now map memory using boot_map_region or page_insert
	page_init();
  80042024b3:	48 b8 1f 29 20 04 80 	movabs $0x800420291f,%rax
  80042024ba:	00 00 00 
  80042024bd:	ff d0                	callq  *%rax
	//    - the new image at UPAGES -- kernel R, us/er R
	//      (ie. perm = PTE_U | PTE_P)i
	//    - pages itself -- kernel RW, user NONE
	// Your code goes here:

	boot_map_region(boot_pml4e, UPAGES, PTSIZE, PADDR(pages), PTE_U | PTE_P);
  80042024bf:	48 b8 38 37 36 04 80 	movabs $0x8004363738,%rax
  80042024c6:	00 00 00 
  80042024c9:	48 8b 00             	mov    (%rax),%rax
  80042024cc:	48 89 45 e8          	mov    %rax,-0x18(%rbp)
  80042024d0:	48 b8 ff ff ff 03 80 	movabs $0x8003ffffff,%rax
  80042024d7:	00 00 00 
  80042024da:	48 39 45 e8          	cmp    %rax,-0x18(%rbp)
  80042024de:	77 32                	ja     8004202512 <x64_vm_init+0x16d>
  80042024e0:	48 8b 45 e8          	mov    -0x18(%rbp),%rax
  80042024e4:	48 89 c1             	mov    %rax,%rcx
  80042024e7:	48 ba 70 67 21 04 80 	movabs $0x8004216770,%rdx
  80042024ee:	00 00 00 
  80042024f1:	be 2e 01 00 00       	mov    $0x12e,%esi
  80042024f6:	48 bf 76 66 21 04 80 	movabs $0x8004216676,%rdi
  80042024fd:	00 00 00 
  8004202500:	b8 00 00 00 00       	mov    $0x0,%eax
  8004202505:	49 b8 9b 04 20 04 80 	movabs $0x800420049b,%r8
  800420250c:	00 00 00 
  800420250f:	41 ff d0             	callq  *%r8
  8004202512:	48 ba 00 00 00 fc 7f 	movabs $0xffffff7ffc000000,%rdx
  8004202519:	ff ff ff 
  800420251c:	48 8b 45 e8          	mov    -0x18(%rbp),%rax
  8004202520:	48 01 c2             	add    %rax,%rdx
  8004202523:	48 b8 28 37 36 04 80 	movabs $0x8004363728,%rax
  800420252a:	00 00 00 
  800420252d:	48 8b 00             	mov    (%rax),%rax
  8004202530:	41 b8 05 00 00 00    	mov    $0x5,%r8d
  8004202536:	48 89 d1             	mov    %rdx,%rcx
  8004202539:	ba 00 00 20 00       	mov    $0x200000,%edx
  800420253e:	48 be 00 00 a0 00 80 	movabs $0x8000a00000,%rsi
  8004202545:	00 00 00 
  8004202548:	48 89 c7             	mov    %rax,%rdi
  800420254b:	48 b8 70 34 20 04 80 	movabs $0x8004203470,%rax
  8004202552:	00 00 00 
  8004202555:	ff d0                	callq  *%rax
	// Permissions:
	//    - the new image at UENVS  -- kernel R, user R
	//    - envs itself -- kernel RW, user NONE
	// LAB 3: Your code here.
	
	boot_map_region(boot_pml4e, UENVS, PTSIZE, PADDR(envs), PTE_U | PTE_P);
  8004202557:	48 b8 50 22 36 04 80 	movabs $0x8004362250,%rax
  800420255e:	00 00 00 
  8004202561:	48 8b 00             	mov    (%rax),%rax
  8004202564:	48 89 45 e0          	mov    %rax,-0x20(%rbp)
  8004202568:	48 b8 ff ff ff 03 80 	movabs $0x8003ffffff,%rax
  800420256f:	00 00 00 
  8004202572:	48 39 45 e0          	cmp    %rax,-0x20(%rbp)
  8004202576:	77 32                	ja     80042025aa <x64_vm_init+0x205>
  8004202578:	48 8b 45 e0          	mov    -0x20(%rbp),%rax
  800420257c:	48 89 c1             	mov    %rax,%rcx
  800420257f:	48 ba 70 67 21 04 80 	movabs $0x8004216770,%rdx
  8004202586:	00 00 00 
  8004202589:	be 38 01 00 00       	mov    $0x138,%esi
  800420258e:	48 bf 76 66 21 04 80 	movabs $0x8004216676,%rdi
  8004202595:	00 00 00 
  8004202598:	b8 00 00 00 00       	mov    $0x0,%eax
  800420259d:	49 b8 9b 04 20 04 80 	movabs $0x800420049b,%r8
  80042025a4:	00 00 00 
  80042025a7:	41 ff d0             	callq  *%r8
  80042025aa:	48 ba 00 00 00 fc 7f 	movabs $0xffffff7ffc000000,%rdx
  80042025b1:	ff ff ff 
  80042025b4:	48 8b 45 e0          	mov    -0x20(%rbp),%rax
  80042025b8:	48 01 c2             	add    %rax,%rdx
  80042025bb:	48 b8 28 37 36 04 80 	movabs $0x8004363728,%rax
  80042025c2:	00 00 00 
  80042025c5:	48 8b 00             	mov    (%rax),%rax
  80042025c8:	41 b8 05 00 00 00    	mov    $0x5,%r8d
  80042025ce:	48 89 d1             	mov    %rdx,%rcx
  80042025d1:	ba 00 00 20 00       	mov    $0x200000,%edx
  80042025d6:	48 be 00 00 80 00 80 	movabs $0x8000800000,%rsi
  80042025dd:	00 00 00 
  80042025e0:	48 89 c7             	mov    %rax,%rdi
  80042025e3:	48 b8 70 34 20 04 80 	movabs $0x8004203470,%rax
  80042025ea:	00 00 00 
  80042025ed:	ff d0                	callq  *%rax
	//       overwrite memory.  Known as a "guard page".
	//     Permissions: kernel RW, user NONE
	// Your code goes here:

	//PTE_W 0x2 = 1=read/write 0=read only
	boot_map_region(boot_pml4e, KSTACKTOP-KSTKSIZE, KSTKSIZE, PADDR(bootstack), PTE_W);
  80042025ef:	48 b8 00 b0 21 04 80 	movabs $0x800421b000,%rax
  80042025f6:	00 00 00 
  80042025f9:	48 89 45 d8          	mov    %rax,-0x28(%rbp)
  80042025fd:	48 b8 ff ff ff 03 80 	movabs $0x8003ffffff,%rax
  8004202604:	00 00 00 
  8004202607:	48 39 45 d8          	cmp    %rax,-0x28(%rbp)
  800420260b:	77 32                	ja     800420263f <x64_vm_init+0x29a>
  800420260d:	48 8b 45 d8          	mov    -0x28(%rbp),%rax
  8004202611:	48 89 c1             	mov    %rax,%rcx
  8004202614:	48 ba 70 67 21 04 80 	movabs $0x8004216770,%rdx
  800420261b:	00 00 00 
  800420261e:	be 48 01 00 00       	mov    $0x148,%esi
  8004202623:	48 bf 76 66 21 04 80 	movabs $0x8004216676,%rdi
  800420262a:	00 00 00 
  800420262d:	b8 00 00 00 00       	mov    $0x0,%eax
  8004202632:	49 b8 9b 04 20 04 80 	movabs $0x800420049b,%r8
  8004202639:	00 00 00 
  800420263c:	41 ff d0             	callq  *%r8
  800420263f:	48 ba 00 00 00 fc 7f 	movabs $0xffffff7ffc000000,%rdx
  8004202646:	ff ff ff 
  8004202649:	48 8b 45 d8          	mov    -0x28(%rbp),%rax
  800420264d:	48 01 c2             	add    %rax,%rdx
  8004202650:	48 b8 28 37 36 04 80 	movabs $0x8004363728,%rax
  8004202657:	00 00 00 
  800420265a:	48 8b 00             	mov    (%rax),%rax
  800420265d:	41 b8 02 00 00 00    	mov    $0x2,%r8d
  8004202663:	48 89 d1             	mov    %rdx,%rcx
  8004202666:	ba 00 00 01 00       	mov    $0x10000,%edx
  800420266b:	48 be 00 00 ff 03 80 	movabs $0x8003ff0000,%rsi
  8004202672:	00 00 00 
  8004202675:	48 89 c7             	mov    %rax,%rdi
  8004202678:	48 b8 70 34 20 04 80 	movabs $0x8004203470,%rax
  800420267f:	00 00 00 
  8004202682:	ff d0                	callq  *%rax
	// Ie.  the VA range [KERNBASE, npages*PGSIZE) should map to
	//      the PA range [0, npages*PGSIZE)
	// Permissions: kernel RW, user NONE
	// Your code goes here:

	boot_map_region(boot_pml4e, KERNBASE, npages*PGSIZE, 0, PTE_W);
  8004202684:	48 b8 30 37 36 04 80 	movabs $0x8004363730,%rax
  800420268b:	00 00 00 
  800420268e:	48 8b 00             	mov    (%rax),%rax
  8004202691:	48 c1 e0 0c          	shl    $0xc,%rax
  8004202695:	48 89 c2             	mov    %rax,%rdx
  8004202698:	48 b8 28 37 36 04 80 	movabs $0x8004363728,%rax
  800420269f:	00 00 00 
  80042026a2:	48 8b 00             	mov    (%rax),%rax
  80042026a5:	41 b8 02 00 00 00    	mov    $0x2,%r8d
  80042026ab:	b9 00 00 00 00       	mov    $0x0,%ecx
  80042026b0:	48 be 00 00 00 04 80 	movabs $0x8004000000,%rsi
  80042026b7:	00 00 00 
  80042026ba:	48 89 c7             	mov    %rax,%rdi
  80042026bd:	48 b8 70 34 20 04 80 	movabs $0x8004203470,%rax
  80042026c4:	00 00 00 
  80042026c7:	ff d0                	callq  *%rax

	// Check that the initial page directory has been set up correctly.
	// Initialize the SMP-related parts of the memory map
	mem_init_mp();
  80042026c9:	48 b8 3a 28 20 04 80 	movabs $0x800420283a,%rax
  80042026d0:	00 00 00 
  80042026d3:	ff d0                	callq  *%rax

	check_page_free_list(1);
  80042026d5:	bf 01 00 00 00       	mov    $0x1,%edi
  80042026da:	48 b8 ec 3a 20 04 80 	movabs $0x8004203aec,%rax
  80042026e1:	00 00 00 
  80042026e4:	ff d0                	callq  *%rax
	check_page_alloc();
  80042026e6:	48 b8 1a 40 20 04 80 	movabs $0x800420401a,%rax
  80042026ed:	00 00 00 
  80042026f0:	ff d0                	callq  *%rax
	page_check();
  80042026f2:	48 b8 db 53 20 04 80 	movabs $0x80042053db,%rax
  80042026f9:	00 00 00 
  80042026fc:	ff d0                	callq  *%rax
	check_page_free_list(0);
  80042026fe:	bf 00 00 00 00       	mov    $0x0,%edi
  8004202703:	48 b8 ec 3a 20 04 80 	movabs $0x8004203aec,%rax
  800420270a:	00 00 00 
  800420270d:	ff d0                	callq  *%rax
	//cprintf("SUCCESSSS\n");

	check_boot_pml4e(boot_pml4e);
  800420270f:	48 b8 28 37 36 04 80 	movabs $0x8004363728,%rax
  8004202716:	00 00 00 
  8004202719:	48 8b 00             	mov    (%rax),%rax
  800420271c:	48 89 c7             	mov    %rax,%rdi
  800420271f:	48 b8 10 4a 20 04 80 	movabs $0x8004204a10,%rax
  8004202726:	00 00 00 
  8004202729:	ff d0                	callq  *%rax


	//////////////////////////////////////////////////////////////////////
	// Permissions: kernel RW, user NONE
	pdpe_t *pdpe = KADDR(PTE_ADDR(pml4e[1]));
  800420272b:	48 8b 45 f8          	mov    -0x8(%rbp),%rax
  800420272f:	48 83 c0 08          	add    $0x8,%rax
  8004202733:	48 8b 00             	mov    (%rax),%rax
  8004202736:	48 25 00 f0 ff ff    	and    $0xfffffffffffff000,%rax
  800420273c:	48 89 45 d0          	mov    %rax,-0x30(%rbp)
  8004202740:	48 8b 45 d0          	mov    -0x30(%rbp),%rax
  8004202744:	48 c1 e8 0c          	shr    $0xc,%rax
  8004202748:	89 45 cc             	mov    %eax,-0x34(%rbp)
  800420274b:	8b 55 cc             	mov    -0x34(%rbp),%edx
  800420274e:	48 b8 30 37 36 04 80 	movabs $0x8004363730,%rax
  8004202755:	00 00 00 
  8004202758:	48 8b 00             	mov    (%rax),%rax
  800420275b:	48 39 c2             	cmp    %rax,%rdx
  800420275e:	72 32                	jb     8004202792 <x64_vm_init+0x3ed>
  8004202760:	48 8b 45 d0          	mov    -0x30(%rbp),%rax
  8004202764:	48 89 c1             	mov    %rax,%rcx
  8004202767:	48 ba e8 65 21 04 80 	movabs $0x80042165e8,%rdx
  800420276e:	00 00 00 
  8004202771:	be 63 01 00 00       	mov    $0x163,%esi
  8004202776:	48 bf 76 66 21 04 80 	movabs $0x8004216676,%rdi
  800420277d:	00 00 00 
  8004202780:	b8 00 00 00 00       	mov    $0x0,%eax
  8004202785:	49 b8 9b 04 20 04 80 	movabs $0x800420049b,%r8
  800420278c:	00 00 00 
  800420278f:	41 ff d0             	callq  *%r8
  8004202792:	48 ba 00 00 00 04 80 	movabs $0x8004000000,%rdx
  8004202799:	00 00 00 
  800420279c:	48 8b 45 d0          	mov    -0x30(%rbp),%rax
  80042027a0:	48 01 d0             	add    %rdx,%rax
  80042027a3:	48 89 45 c0          	mov    %rax,-0x40(%rbp)
	pde_t *pgdir = KADDR(PTE_ADDR(pdpe[0]));
  80042027a7:	48 8b 45 c0          	mov    -0x40(%rbp),%rax
  80042027ab:	48 8b 00             	mov    (%rax),%rax
  80042027ae:	48 25 00 f0 ff ff    	and    $0xfffffffffffff000,%rax
  80042027b4:	48 89 45 b8          	mov    %rax,-0x48(%rbp)
  80042027b8:	48 8b 45 b8          	mov    -0x48(%rbp),%rax
  80042027bc:	48 c1 e8 0c          	shr    $0xc,%rax
  80042027c0:	89 45 b4             	mov    %eax,-0x4c(%rbp)
  80042027c3:	8b 55 b4             	mov    -0x4c(%rbp),%edx
  80042027c6:	48 b8 30 37 36 04 80 	movabs $0x8004363730,%rax
  80042027cd:	00 00 00 
  80042027d0:	48 8b 00             	mov    (%rax),%rax
  80042027d3:	48 39 c2             	cmp    %rax,%rdx
  80042027d6:	72 32                	jb     800420280a <x64_vm_init+0x465>
  80042027d8:	48 8b 45 b8          	mov    -0x48(%rbp),%rax
  80042027dc:	48 89 c1             	mov    %rax,%rcx
  80042027df:	48 ba e8 65 21 04 80 	movabs $0x80042165e8,%rdx
  80042027e6:	00 00 00 
  80042027e9:	be 64 01 00 00       	mov    $0x164,%esi
  80042027ee:	48 bf 76 66 21 04 80 	movabs $0x8004216676,%rdi
  80042027f5:	00 00 00 
  80042027f8:	b8 00 00 00 00       	mov    $0x0,%eax
  80042027fd:	49 b8 9b 04 20 04 80 	movabs $0x800420049b,%r8
  8004202804:	00 00 00 
  8004202807:	41 ff d0             	callq  *%r8
  800420280a:	48 ba 00 00 00 04 80 	movabs $0x8004000000,%rdx
  8004202811:	00 00 00 
  8004202814:	48 8b 45 b8          	mov    -0x48(%rbp),%rax
  8004202818:	48 01 d0             	add    %rdx,%rax
  800420281b:	48 89 45 a8          	mov    %rax,-0x58(%rbp)

	//check_boot_pml4e(boot_pml4e);
	lcr3(boot_cr3);
  800420281f:	48 b8 20 37 36 04 80 	movabs $0x8004363720,%rax
  8004202826:	00 00 00 
  8004202829:	48 8b 00             	mov    (%rax),%rax
  800420282c:	48 89 45 a0          	mov    %rax,-0x60(%rbp)
}

static __inline void
lcr3(uint64_t val)
{
	__asm __volatile("movq %0,%%cr3" : : "r" (val));
  8004202830:	48 8b 45 a0          	mov    -0x60(%rbp),%rax
  8004202834:	0f 22 d8             	mov    %rax,%cr3
}
  8004202837:	90                   	nop
  8004202838:	c9                   	leaveq 
  8004202839:	c3                   	retq   

000000800420283a <mem_init_mp>:
// Modify mappings in boot_pml4e to support SMP
//   - Map the per-CPU stacks in the region [KSTACKTOP-PTSIZE, KSTACKTOP)
//
static void
mem_init_mp(void)
{
  800420283a:	55                   	push   %rbp
  800420283b:	48 89 e5             	mov    %rsp,%rbp
  800420283e:	48 83 ec 20          	sub    $0x20,%rsp
	//     Permissions: kernel RW, user NONE PTE_W
	//
	// LAB 4: Your code here:

	//for every CPU
	for (int i=0; i<NCPU;i++){
  8004202842:	c7 45 fc 00 00 00 00 	movl   $0x0,-0x4(%rbp)
  8004202849:	e9 c4 00 00 00       	jmpq   8004202912 <mem_init_mp+0xd8>

		uintptr_t kstacktop_i = KSTACKTOP - i * (KSTKSIZE + KSTKGAP) - KSTKSIZE;
  800420284e:	8b 55 fc             	mov    -0x4(%rbp),%edx
  8004202851:	89 d0                	mov    %edx,%eax
  8004202853:	01 c0                	add    %eax,%eax
  8004202855:	01 d0                	add    %edx,%eax
  8004202857:	c1 e0 0f             	shl    $0xf,%eax
  800420285a:	48 98                	cltq   
  800420285c:	48 ba 00 00 ff 03 80 	movabs $0x8003ff0000,%rdx
  8004202863:	00 00 00 
  8004202866:	48 29 c2             	sub    %rax,%rdx
  8004202869:	48 89 d0             	mov    %rdx,%rax
  800420286c:	48 89 45 f0          	mov    %rax,-0x10(%rbp)
		boot_map_region(boot_pml4e, kstacktop_i, KSTKSIZE, PADDR(percpu_kstacks[i]), PTE_W);
  8004202870:	8b 45 fc             	mov    -0x4(%rbp),%eax
  8004202873:	48 98                	cltq   
  8004202875:	48 c1 e0 10          	shl    $0x10,%rax
  8004202879:	48 89 c2             	mov    %rax,%rdx
  800420287c:	48 b8 00 60 36 04 80 	movabs $0x8004366000,%rax
  8004202883:	00 00 00 
  8004202886:	48 01 d0             	add    %rdx,%rax
  8004202889:	48 89 45 e8          	mov    %rax,-0x18(%rbp)
  800420288d:	48 b8 ff ff ff 03 80 	movabs $0x8003ffffff,%rax
  8004202894:	00 00 00 
  8004202897:	48 39 45 e8          	cmp    %rax,-0x18(%rbp)
  800420289b:	77 32                	ja     80042028cf <mem_init_mp+0x95>
  800420289d:	48 8b 45 e8          	mov    -0x18(%rbp),%rax
  80042028a1:	48 89 c1             	mov    %rax,%rcx
  80042028a4:	48 ba 70 67 21 04 80 	movabs $0x8004216770,%rdx
  80042028ab:	00 00 00 
  80042028ae:	be 86 01 00 00       	mov    $0x186,%esi
  80042028b3:	48 bf 76 66 21 04 80 	movabs $0x8004216676,%rdi
  80042028ba:	00 00 00 
  80042028bd:	b8 00 00 00 00       	mov    $0x0,%eax
  80042028c2:	49 b8 9b 04 20 04 80 	movabs $0x800420049b,%r8
  80042028c9:	00 00 00 
  80042028cc:	41 ff d0             	callq  *%r8
  80042028cf:	48 ba 00 00 00 fc 7f 	movabs $0xffffff7ffc000000,%rdx
  80042028d6:	ff ff ff 
  80042028d9:	48 8b 45 e8          	mov    -0x18(%rbp),%rax
  80042028dd:	48 01 c2             	add    %rax,%rdx
  80042028e0:	48 b8 28 37 36 04 80 	movabs $0x8004363728,%rax
  80042028e7:	00 00 00 
  80042028ea:	48 8b 00             	mov    (%rax),%rax
  80042028ed:	48 8b 75 f0          	mov    -0x10(%rbp),%rsi
  80042028f1:	41 b8 02 00 00 00    	mov    $0x2,%r8d
  80042028f7:	48 89 d1             	mov    %rdx,%rcx
  80042028fa:	ba 00 00 01 00       	mov    $0x10000,%edx
  80042028ff:	48 89 c7             	mov    %rax,%rdi
  8004202902:	48 b8 70 34 20 04 80 	movabs $0x8004203470,%rax
  8004202909:	00 00 00 
  800420290c:	ff d0                	callq  *%rax
	//     Permissions: kernel RW, user NONE PTE_W
	//
	// LAB 4: Your code here:

	//for every CPU
	for (int i=0; i<NCPU;i++){
  800420290e:	83 45 fc 01          	addl   $0x1,-0x4(%rbp)
  8004202912:	83 7d fc 07          	cmpl   $0x7,-0x4(%rbp)
  8004202916:	0f 8e 32 ff ff ff    	jle    800420284e <mem_init_mp+0x14>
		boot_map_region(boot_pml4e, kstacktop_i, KSTKSIZE, PADDR(percpu_kstacks[i]), PTE_W);

	}


}
  800420291c:	90                   	nop
  800420291d:	c9                   	leaveq 
  800420291e:	c3                   	retq   

000000800420291f <page_init>:
// allocator functions below to allocate and deallocate physical
// memory via the page_free_list.
//
void
page_init(void)
{
  800420291f:	55                   	push   %rbp
  8004202920:	48 89 e5             	mov    %rsp,%rbp
  8004202923:	48 83 ec 20          	sub    $0x20,%rsp
	// free pages!
	// NB: Make sure you preserve the direction in which your page_free_list
	// is constructed
	// NB: Remember to mark the memory used for initial boot page table i.e (va>=BOOT_PAGE_TABLE_START && va < BOOT_PAGE_TABLE_END) as in-use (not free)
	size_t i;
	struct PageInfo* last = NULL;
  8004202927:	48 c7 45 f0 00 00 00 	movq   $0x0,-0x10(%rbp)
  800420292e:	00 
	//page_free_list = NULL;

	//find pages after end of kernel
	uint64_t kern_end_mem = (((uint64_t)boot_alloc(0))-KERNBASE)/PGSIZE;
  800420292f:	bf 00 00 00 00       	mov    $0x0,%edi
  8004202934:	48 b8 d5 22 20 04 80 	movabs $0x80042022d5,%rax
  800420293b:	00 00 00 
  800420293e:	ff d0                	callq  *%rax
  8004202940:	48 89 c2             	mov    %rax,%rdx
  8004202943:	48 b8 00 00 00 fc 7f 	movabs $0xffffff7ffc000000,%rax
  800420294a:	ff ff ff 
  800420294d:	48 01 d0             	add    %rdx,%rax
  8004202950:	48 c1 e8 0c          	shr    $0xc,%rax
  8004202954:	48 89 45 e8          	mov    %rax,-0x18(%rbp)
	uint64_t mpentry = (uint64_t)MPENTRY_PADDR/PGSIZE;
  8004202958:	48 c7 45 e0 07 00 00 	movq   $0x7,-0x20(%rbp)
  800420295f:	00 


	for (i = 0; i < npages; i++) {
  8004202960:	48 c7 45 f8 00 00 00 	movq   $0x0,-0x8(%rbp)
  8004202967:	00 
  8004202968:	e9 5e 01 00 00       	jmpq   8004202acb <page_init+0x1ac>

		if (i==0 || i==mpentry){ 	//#1 make sure first page isn't free amd mpentry is gone too
  800420296d:	48 83 7d f8 00       	cmpq   $0x0,-0x8(%rbp)
  8004202972:	74 0a                	je     800420297e <page_init+0x5f>
  8004202974:	48 8b 45 f8          	mov    -0x8(%rbp),%rax
  8004202978:	48 3b 45 e0          	cmp    -0x20(%rbp),%rax
  800420297c:	75 42                	jne    80042029c0 <page_init+0xa1>
			pages[i].pp_ref = 1;
  800420297e:	48 b8 38 37 36 04 80 	movabs $0x8004363738,%rax
  8004202985:	00 00 00 
  8004202988:	48 8b 00             	mov    (%rax),%rax
  800420298b:	48 8b 55 f8          	mov    -0x8(%rbp),%rdx
  800420298f:	48 c1 e2 04          	shl    $0x4,%rdx
  8004202993:	48 01 d0             	add    %rdx,%rax
  8004202996:	66 c7 40 08 01 00    	movw   $0x1,0x8(%rax)
			pages[i].pp_link = NULL;
  800420299c:	48 b8 38 37 36 04 80 	movabs $0x8004363738,%rax
  80042029a3:	00 00 00 
  80042029a6:	48 8b 00             	mov    (%rax),%rax
  80042029a9:	48 8b 55 f8          	mov    -0x8(%rbp),%rdx
  80042029ad:	48 c1 e2 04          	shl    $0x4,%rdx
  80042029b1:	48 01 d0             	add    %rdx,%rax
  80042029b4:	48 c7 00 00 00 00 00 	movq   $0x0,(%rax)
  80042029bb:	e9 06 01 00 00       	jmpq   8004202ac6 <page_init+0x1a7>

		//#2 and #4 stipulation, skips past kernel and IO hole (before kern)
		}else if(i<npages_basemem || i>kern_end_mem){
  80042029c0:	48 b8 30 22 36 04 80 	movabs $0x8004362230,%rax
  80042029c7:	00 00 00 
  80042029ca:	48 8b 00             	mov    (%rax),%rax
  80042029cd:	48 39 45 f8          	cmp    %rax,-0x8(%rbp)
  80042029d1:	72 0e                	jb     80042029e1 <page_init+0xc2>
  80042029d3:	48 8b 45 f8          	mov    -0x8(%rbp),%rax
  80042029d7:	48 3b 45 e8          	cmp    -0x18(%rbp),%rax
  80042029db:	0f 86 a8 00 00 00    	jbe    8004202a89 <page_init+0x16a>
			pages[i].pp_ref = 0;
  80042029e1:	48 b8 38 37 36 04 80 	movabs $0x8004363738,%rax
  80042029e8:	00 00 00 
  80042029eb:	48 8b 00             	mov    (%rax),%rax
  80042029ee:	48 8b 55 f8          	mov    -0x8(%rbp),%rdx
  80042029f2:	48 c1 e2 04          	shl    $0x4,%rdx
  80042029f6:	48 01 d0             	add    %rdx,%rax
  80042029f9:	66 c7 40 08 00 00    	movw   $0x0,0x8(%rax)
                	pages[i].pp_link = NULL;
  80042029ff:	48 b8 38 37 36 04 80 	movabs $0x8004363738,%rax
  8004202a06:	00 00 00 
  8004202a09:	48 8b 00             	mov    (%rax),%rax
  8004202a0c:	48 8b 55 f8          	mov    -0x8(%rbp),%rdx
  8004202a10:	48 c1 e2 04          	shl    $0x4,%rdx
  8004202a14:	48 01 d0             	add    %rdx,%rax
  8004202a17:	48 c7 00 00 00 00 00 	movq   $0x0,(%rax)

			//cprintf("page_free_list == %p \n", page_free_list);

			if (last){
  8004202a1e:	48 83 7d f0 00       	cmpq   $0x0,-0x10(%rbp)
  8004202a23:	74 21                	je     8004202a46 <page_init+0x127>
				last->pp_link = &pages[i];
  8004202a25:	48 b8 38 37 36 04 80 	movabs $0x8004363738,%rax
  8004202a2c:	00 00 00 
  8004202a2f:	48 8b 00             	mov    (%rax),%rax
  8004202a32:	48 8b 55 f8          	mov    -0x8(%rbp),%rdx
  8004202a36:	48 c1 e2 04          	shl    $0x4,%rdx
  8004202a3a:	48 01 c2             	add    %rax,%rdx
  8004202a3d:	48 8b 45 f0          	mov    -0x10(%rbp),%rax
  8004202a41:	48 89 10             	mov    %rdx,(%rax)
  8004202a44:	eb 25                	jmp    8004202a6b <page_init+0x14c>
			}else{
				page_free_list = &pages[i];
  8004202a46:	48 b8 38 37 36 04 80 	movabs $0x8004363738,%rax
  8004202a4d:	00 00 00 
  8004202a50:	48 8b 00             	mov    (%rax),%rax
  8004202a53:	48 8b 55 f8          	mov    -0x8(%rbp),%rdx
  8004202a57:	48 c1 e2 04          	shl    $0x4,%rdx
  8004202a5b:	48 01 c2             	add    %rax,%rdx
  8004202a5e:	48 b8 38 22 36 04 80 	movabs $0x8004362238,%rax
  8004202a65:	00 00 00 
  8004202a68:	48 89 10             	mov    %rdx,(%rax)
			}
			last = &pages[i];
  8004202a6b:	48 b8 38 37 36 04 80 	movabs $0x8004363738,%rax
  8004202a72:	00 00 00 
  8004202a75:	48 8b 00             	mov    (%rax),%rax
  8004202a78:	48 8b 55 f8          	mov    -0x8(%rbp),%rdx
  8004202a7c:	48 c1 e2 04          	shl    $0x4,%rdx
  8004202a80:	48 01 d0             	add    %rdx,%rax
  8004202a83:	48 89 45 f0          	mov    %rax,-0x10(%rbp)
  8004202a87:	eb 3d                	jmp    8004202ac6 <page_init+0x1a7>
		}else{
			pages[i].pp_ref = 1;
  8004202a89:	48 b8 38 37 36 04 80 	movabs $0x8004363738,%rax
  8004202a90:	00 00 00 
  8004202a93:	48 8b 00             	mov    (%rax),%rax
  8004202a96:	48 8b 55 f8          	mov    -0x8(%rbp),%rdx
  8004202a9a:	48 c1 e2 04          	shl    $0x4,%rdx
  8004202a9e:	48 01 d0             	add    %rdx,%rax
  8004202aa1:	66 c7 40 08 01 00    	movw   $0x1,0x8(%rax)
                        pages[i].pp_link = NULL;
  8004202aa7:	48 b8 38 37 36 04 80 	movabs $0x8004363738,%rax
  8004202aae:	00 00 00 
  8004202ab1:	48 8b 00             	mov    (%rax),%rax
  8004202ab4:	48 8b 55 f8          	mov    -0x8(%rbp),%rdx
  8004202ab8:	48 c1 e2 04          	shl    $0x4,%rdx
  8004202abc:	48 01 d0             	add    %rdx,%rax
  8004202abf:	48 c7 00 00 00 00 00 	movq   $0x0,(%rax)
	//find pages after end of kernel
	uint64_t kern_end_mem = (((uint64_t)boot_alloc(0))-KERNBASE)/PGSIZE;
	uint64_t mpentry = (uint64_t)MPENTRY_PADDR/PGSIZE;


	for (i = 0; i < npages; i++) {
  8004202ac6:	48 83 45 f8 01       	addq   $0x1,-0x8(%rbp)
  8004202acb:	48 b8 30 37 36 04 80 	movabs $0x8004363730,%rax
  8004202ad2:	00 00 00 
  8004202ad5:	48 8b 00             	mov    (%rax),%rax
  8004202ad8:	48 39 45 f8          	cmp    %rax,-0x8(%rbp)
  8004202adc:	0f 82 8b fe ff ff    	jb     800420296d <page_init+0x4e>
			pages[i].pp_ref = 1;
                        pages[i].pp_link = NULL;
		}
	}
	//cprintf("%p \n", page_free_list);
}
  8004202ae2:	90                   	nop
  8004202ae3:	c9                   	leaveq 
  8004202ae4:	c3                   	retq   

0000008004202ae5 <page_alloc>:
// Returns NULL if out of free memory.
//
// Hint: use page2kva and memset
struct PageInfo *
page_alloc(int alloc_flags)
{
  8004202ae5:	55                   	push   %rbp
  8004202ae6:	48 89 e5             	mov    %rsp,%rbp
  8004202ae9:	48 83 ec 20          	sub    $0x20,%rsp
  8004202aed:	89 7d ec             	mov    %edi,-0x14(%rbp)
	//cprintf("Alloc-ing a page\n");
	// return null if out of free memory
	if(page_free_list==NULL){
  8004202af0:	48 b8 38 22 36 04 80 	movabs $0x8004362238,%rax
  8004202af7:	00 00 00 
  8004202afa:	48 8b 00             	mov    (%rax),%rax
  8004202afd:	48 85 c0             	test   %rax,%rax
  8004202b00:	75 0a                	jne    8004202b0c <page_alloc+0x27>
		return NULL;
  8004202b02:	b8 00 00 00 00       	mov    $0x0,%eax
  8004202b07:	e9 ba 00 00 00       	jmpq   8004202bc6 <page_alloc+0xe1>
		//cprintf("HERE\n");
	}
	struct PageInfo *page_allocated = page_free_list;		//sets page
  8004202b0c:	48 b8 38 22 36 04 80 	movabs $0x8004362238,%rax
  8004202b13:	00 00 00 
  8004202b16:	48 8b 00             	mov    (%rax),%rax
  8004202b19:	48 89 45 f8          	mov    %rax,-0x8(%rbp)

	if (page_allocated == NULL)
  8004202b1d:	48 83 7d f8 00       	cmpq   $0x0,-0x8(%rbp)
  8004202b22:	75 0a                	jne    8004202b2e <page_alloc+0x49>
                return NULL;
  8004202b24:	b8 00 00 00 00       	mov    $0x0,%eax
  8004202b29:	e9 98 00 00 00       	jmpq   8004202bc6 <page_alloc+0xe1>
	else{
		if (alloc_flags & ALLOC_ZERO){
  8004202b2e:	8b 45 ec             	mov    -0x14(%rbp),%eax
  8004202b31:	83 e0 01             	and    $0x1,%eax
  8004202b34:	85 c0                	test   %eax,%eax
  8004202b36:	74 2c                	je     8004202b64 <page_alloc+0x7f>
                        memset(page2kva(page_allocated), '\0', PGSIZE);
  8004202b38:	48 8b 45 f8          	mov    -0x8(%rbp),%rax
  8004202b3c:	48 89 c7             	mov    %rax,%rdi
  8004202b3f:	48 b8 ae 19 20 04 80 	movabs $0x80042019ae,%rax
  8004202b46:	00 00 00 
  8004202b49:	ff d0                	callq  *%rax
  8004202b4b:	ba 00 10 00 00       	mov    $0x1000,%edx
  8004202b50:	be 00 00 00 00       	mov    $0x0,%esi
  8004202b55:	48 89 c7             	mov    %rax,%rdi
  8004202b58:	48 b8 77 ec 20 04 80 	movabs $0x800420ec77,%rax
  8004202b5f:	00 00 00 
  8004202b62:	ff d0                	callq  *%rax
                }

		page_free_list = page_free_list->pp_link;	//sets next free page through link
  8004202b64:	48 b8 38 22 36 04 80 	movabs $0x8004362238,%rax
  8004202b6b:	00 00 00 
  8004202b6e:	48 8b 00             	mov    (%rax),%rax
  8004202b71:	48 8b 10             	mov    (%rax),%rdx
  8004202b74:	48 b8 38 22 36 04 80 	movabs $0x8004362238,%rax
  8004202b7b:	00 00 00 
  8004202b7e:	48 89 10             	mov    %rdx,(%rax)

		//set pp_link of allocated page to null
		page_allocated->pp_link = NULL;
  8004202b81:	48 8b 45 f8          	mov    -0x8(%rbp),%rax
  8004202b85:	48 c7 00 00 00 00 00 	movq   $0x0,(%rax)

		//set memory if flags are set with "\0' for length of page
		if (alloc_flags & ALLOC_ZERO){
  8004202b8c:	8b 45 ec             	mov    -0x14(%rbp),%eax
  8004202b8f:	83 e0 01             	and    $0x1,%eax
  8004202b92:	85 c0                	test   %eax,%eax
  8004202b94:	74 2c                	je     8004202bc2 <page_alloc+0xdd>
			memset(page2kva(page_allocated), '\0', PGSIZE);
  8004202b96:	48 8b 45 f8          	mov    -0x8(%rbp),%rax
  8004202b9a:	48 89 c7             	mov    %rax,%rdi
  8004202b9d:	48 b8 ae 19 20 04 80 	movabs $0x80042019ae,%rax
  8004202ba4:	00 00 00 
  8004202ba7:	ff d0                	callq  *%rax
  8004202ba9:	ba 00 10 00 00       	mov    $0x1000,%edx
  8004202bae:	be 00 00 00 00       	mov    $0x0,%esi
  8004202bb3:	48 89 c7             	mov    %rax,%rdi
  8004202bb6:	48 b8 77 ec 20 04 80 	movabs $0x800420ec77,%rax
  8004202bbd:	00 00 00 
  8004202bc0:	ff d0                	callq  *%rax
		}

		//cprintf("PAGE ALLOCATED\n");
		return page_allocated;
  8004202bc2:	48 8b 45 f8          	mov    -0x8(%rbp),%rax
	}
}
  8004202bc6:	c9                   	leaveq 
  8004202bc7:	c3                   	retq   

0000008004202bc8 <page_initpp>:
// The result has null links and 0 refcount.
// Note that the corresponding physical page is NOT initialized!
//
static void
page_initpp(struct PageInfo *pp)
{
  8004202bc8:	55                   	push   %rbp
  8004202bc9:	48 89 e5             	mov    %rsp,%rbp
  8004202bcc:	48 83 ec 10          	sub    $0x10,%rsp
  8004202bd0:	48 89 7d f8          	mov    %rdi,-0x8(%rbp)
	memset(pp, 0, sizeof(*pp));
  8004202bd4:	48 8b 45 f8          	mov    -0x8(%rbp),%rax
  8004202bd8:	ba 10 00 00 00       	mov    $0x10,%edx
  8004202bdd:	be 00 00 00 00       	mov    $0x0,%esi
  8004202be2:	48 89 c7             	mov    %rax,%rdi
  8004202be5:	48 b8 77 ec 20 04 80 	movabs $0x800420ec77,%rax
  8004202bec:	00 00 00 
  8004202bef:	ff d0                	callq  *%rax
}
  8004202bf1:	90                   	nop
  8004202bf2:	c9                   	leaveq 
  8004202bf3:	c3                   	retq   

0000008004202bf4 <page_free>:
// Return a page to the free list.
// (This function should only be called when pp->pp_ref reaches 0.)
//
void
page_free(struct PageInfo *pp)
{
  8004202bf4:	55                   	push   %rbp
  8004202bf5:	48 89 e5             	mov    %rsp,%rbp
  8004202bf8:	48 83 ec 10          	sub    $0x10,%rsp
  8004202bfc:	48 89 7d f8          	mov    %rdi,-0x8(%rbp)
	// Fill this function in
	// Hint: You may want to panic if pp->pp_ref is nonzero or
	// pp->pp_link is not NULL.

	if( pp->pp_ref!=0 || pp->pp_link!=NULL){
  8004202c00:	48 8b 45 f8          	mov    -0x8(%rbp),%rax
  8004202c04:	0f b7 40 08          	movzwl 0x8(%rax),%eax
  8004202c08:	66 85 c0             	test   %ax,%ax
  8004202c0b:	75 0c                	jne    8004202c19 <page_free+0x25>
  8004202c0d:	48 8b 45 f8          	mov    -0x8(%rbp),%rax
  8004202c11:	48 8b 00             	mov    (%rax),%rax
  8004202c14:	48 85 c0             	test   %rax,%rax
  8004202c17:	74 2a                	je     8004202c43 <page_free+0x4f>
		panic("cannot free page with non-zero ref or link");
  8004202c19:	48 ba 98 67 21 04 80 	movabs $0x8004216798,%rdx
  8004202c20:	00 00 00 
  8004202c23:	be 1b 02 00 00       	mov    $0x21b,%esi
  8004202c28:	48 bf 76 66 21 04 80 	movabs $0x8004216676,%rdi
  8004202c2f:	00 00 00 
  8004202c32:	b8 00 00 00 00       	mov    $0x0,%eax
  8004202c37:	48 b9 9b 04 20 04 80 	movabs $0x800420049b,%rcx
  8004202c3e:	00 00 00 
  8004202c41:	ff d1                	callq  *%rcx
	}

	pp->pp_link = page_free_list; //link back to free page list
  8004202c43:	48 b8 38 22 36 04 80 	movabs $0x8004362238,%rax
  8004202c4a:	00 00 00 
  8004202c4d:	48 8b 10             	mov    (%rax),%rdx
  8004202c50:	48 8b 45 f8          	mov    -0x8(%rbp),%rax
  8004202c54:	48 89 10             	mov    %rdx,(%rax)
	page_free_list = pp;	      //other end of connection
  8004202c57:	48 b8 38 22 36 04 80 	movabs $0x8004362238,%rax
  8004202c5e:	00 00 00 
  8004202c61:	48 8b 55 f8          	mov    -0x8(%rbp),%rdx
  8004202c65:	48 89 10             	mov    %rdx,(%rax)

}
  8004202c68:	90                   	nop
  8004202c69:	c9                   	leaveq 
  8004202c6a:	c3                   	retq   

0000008004202c6b <page_decref>:
// Decrement the reference count on a page,
// freeing it if there are no more refs.
//
void
page_decref(struct PageInfo* pp)
{
  8004202c6b:	55                   	push   %rbp
  8004202c6c:	48 89 e5             	mov    %rsp,%rbp
  8004202c6f:	48 83 ec 10          	sub    $0x10,%rsp
  8004202c73:	48 89 7d f8          	mov    %rdi,-0x8(%rbp)
	if (--pp->pp_ref == 0)
  8004202c77:	48 8b 45 f8          	mov    -0x8(%rbp),%rax
  8004202c7b:	0f b7 40 08          	movzwl 0x8(%rax),%eax
  8004202c7f:	8d 50 ff             	lea    -0x1(%rax),%edx
  8004202c82:	48 8b 45 f8          	mov    -0x8(%rbp),%rax
  8004202c86:	66 89 50 08          	mov    %dx,0x8(%rax)
  8004202c8a:	48 8b 45 f8          	mov    -0x8(%rbp),%rax
  8004202c8e:	0f b7 40 08          	movzwl 0x8(%rax),%eax
  8004202c92:	66 85 c0             	test   %ax,%ax
  8004202c95:	75 13                	jne    8004202caa <page_decref+0x3f>
		page_free(pp);
  8004202c97:	48 8b 45 f8          	mov    -0x8(%rbp),%rax
  8004202c9b:	48 89 c7             	mov    %rax,%rdi
  8004202c9e:	48 b8 f4 2b 20 04 80 	movabs $0x8004202bf4,%rax
  8004202ca5:	00 00 00 
  8004202ca8:	ff d0                	callq  *%rax
}
  8004202caa:	90                   	nop
  8004202cab:	c9                   	leaveq 
  8004202cac:	c3                   	retq   

0000008004202cad <pml4e_walk>:
// table, page directory,page directory pointer and pml4 entries.
//

pte_t *
pml4e_walk(pml4e_t *pml4e, const void *va, int create)
{
  8004202cad:	55                   	push   %rbp
  8004202cae:	48 89 e5             	mov    %rsp,%rbp
  8004202cb1:	53                   	push   %rbx
  8004202cb2:	48 83 ec 68          	sub    $0x68,%rsp
  8004202cb6:	48 89 7d a8          	mov    %rdi,-0x58(%rbp)
  8004202cba:	48 89 75 a0          	mov    %rsi,-0x60(%rbp)
  8004202cbe:	89 55 9c             	mov    %edx,-0x64(%rbp)
	uint64_t temp_pml = PML4(va);
  8004202cc1:	48 8b 45 a0          	mov    -0x60(%rbp),%rax
  8004202cc5:	48 c1 e8 27          	shr    $0x27,%rax
  8004202cc9:	25 ff 01 00 00       	and    $0x1ff,%eax
  8004202cce:	48 89 45 e8          	mov    %rax,-0x18(%rbp)

	//pdpe does not exist and create == false
	if (!*pml4e && !create){
  8004202cd2:	48 8b 45 a8          	mov    -0x58(%rbp),%rax
  8004202cd6:	48 8b 00             	mov    (%rax),%rax
  8004202cd9:	48 85 c0             	test   %rax,%rax
  8004202cdc:	75 10                	jne    8004202cee <pml4e_walk+0x41>
  8004202cde:	83 7d 9c 00          	cmpl   $0x0,-0x64(%rbp)
  8004202ce2:	75 0a                	jne    8004202cee <pml4e_walk+0x41>
		return NULL;
  8004202ce4:	b8 00 00 00 00       	mov    $0x0,%eax
  8004202ce9:	e9 31 02 00 00       	jmpq   8004202f1f <pml4e_walk+0x272>
	}

	pte_t *ptr_pte = NULL;
  8004202cee:	48 c7 45 e0 00 00 00 	movq   $0x0,-0x20(%rbp)
  8004202cf5:	00 
        pdpe_t *ptr_pdpe = NULL;
  8004202cf6:	48 c7 45 d8 00 00 00 	movq   $0x0,-0x28(%rbp)
  8004202cfd:	00 

	//pdpe already eacsts
	if(pml4e[PML4(va)] & PTE_P){
  8004202cfe:	48 8b 45 a0          	mov    -0x60(%rbp),%rax
  8004202d02:	48 c1 e8 27          	shr    $0x27,%rax
  8004202d06:	25 ff 01 00 00       	and    $0x1ff,%eax
  8004202d0b:	48 8d 14 c5 00 00 00 	lea    0x0(,%rax,8),%rdx
  8004202d12:	00 
  8004202d13:	48 8b 45 a8          	mov    -0x58(%rbp),%rax
  8004202d17:	48 01 d0             	add    %rdx,%rax
  8004202d1a:	48 8b 00             	mov    (%rax),%rax
  8004202d1d:	83 e0 01             	and    $0x1,%eax
  8004202d20:	48 85 c0             	test   %rax,%rax
  8004202d23:	0f 84 ba 00 00 00    	je     8004202de3 <pml4e_walk+0x136>

		ptr_pdpe = (pdpe_t *)KADDR(PTE_ADDR(pml4e[PML4(va)]));
  8004202d29:	48 8b 45 a0          	mov    -0x60(%rbp),%rax
  8004202d2d:	48 c1 e8 27          	shr    $0x27,%rax
  8004202d31:	25 ff 01 00 00       	and    $0x1ff,%eax
  8004202d36:	48 8d 14 c5 00 00 00 	lea    0x0(,%rax,8),%rdx
  8004202d3d:	00 
  8004202d3e:	48 8b 45 a8          	mov    -0x58(%rbp),%rax
  8004202d42:	48 01 d0             	add    %rdx,%rax
  8004202d45:	48 8b 00             	mov    (%rax),%rax
  8004202d48:	48 25 00 f0 ff ff    	and    $0xfffffffffffff000,%rax
  8004202d4e:	48 89 45 d0          	mov    %rax,-0x30(%rbp)
  8004202d52:	48 8b 45 d0          	mov    -0x30(%rbp),%rax
  8004202d56:	48 c1 e8 0c          	shr    $0xc,%rax
  8004202d5a:	89 45 cc             	mov    %eax,-0x34(%rbp)
  8004202d5d:	8b 55 cc             	mov    -0x34(%rbp),%edx
  8004202d60:	48 b8 30 37 36 04 80 	movabs $0x8004363730,%rax
  8004202d67:	00 00 00 
  8004202d6a:	48 8b 00             	mov    (%rax),%rax
  8004202d6d:	48 39 c2             	cmp    %rax,%rdx
  8004202d70:	72 32                	jb     8004202da4 <pml4e_walk+0xf7>
  8004202d72:	48 8b 45 d0          	mov    -0x30(%rbp),%rax
  8004202d76:	48 89 c1             	mov    %rax,%rcx
  8004202d79:	48 ba e8 65 21 04 80 	movabs $0x80042165e8,%rdx
  8004202d80:	00 00 00 
  8004202d83:	be 57 02 00 00       	mov    $0x257,%esi
  8004202d88:	48 bf 76 66 21 04 80 	movabs $0x8004216676,%rdi
  8004202d8f:	00 00 00 
  8004202d92:	b8 00 00 00 00       	mov    $0x0,%eax
  8004202d97:	49 b8 9b 04 20 04 80 	movabs $0x800420049b,%r8
  8004202d9e:	00 00 00 
  8004202da1:	41 ff d0             	callq  *%r8
  8004202da4:	48 ba 00 00 00 04 80 	movabs $0x8004000000,%rdx
  8004202dab:	00 00 00 
  8004202dae:	48 8b 45 d0          	mov    -0x30(%rbp),%rax
  8004202db2:	48 01 d0             	add    %rdx,%rax
  8004202db5:	48 89 45 d8          	mov    %rax,-0x28(%rbp)
		ptr_pte = pdpe_walk(ptr_pdpe, va, create);
  8004202db9:	8b 55 9c             	mov    -0x64(%rbp),%edx
  8004202dbc:	48 8b 4d a0          	mov    -0x60(%rbp),%rcx
  8004202dc0:	48 8b 45 d8          	mov    -0x28(%rbp),%rax
  8004202dc4:	48 89 ce             	mov    %rcx,%rsi
  8004202dc7:	48 89 c7             	mov    %rax,%rdi
  8004202dca:	48 b8 26 2f 20 04 80 	movabs $0x8004202f26,%rax
  8004202dd1:	00 00 00 
  8004202dd4:	ff d0                	callq  *%rax
  8004202dd6:	48 89 45 e0          	mov    %rax,-0x20(%rbp)
		return ptr_pte;
  8004202dda:	48 8b 45 e0          	mov    -0x20(%rbp),%rax
  8004202dde:	e9 3c 01 00 00       	jmpq   8004202f1f <pml4e_walk+0x272>

	//allocates new PDPE page with page_alloc
	}else if (create){
  8004202de3:	83 7d 9c 00          	cmpl   $0x0,-0x64(%rbp)
  8004202de7:	0f 84 2d 01 00 00    	je     8004202f1a <pml4e_walk+0x26d>
		struct PageInfo *page = page_alloc(ALLOC_ZERO);
  8004202ded:	bf 01 00 00 00       	mov    $0x1,%edi
  8004202df2:	48 b8 e5 2a 20 04 80 	movabs $0x8004202ae5,%rax
  8004202df9:	00 00 00 
  8004202dfc:	ff d0                	callq  *%rax
  8004202dfe:	48 89 45 c0          	mov    %rax,-0x40(%rbp)

		//allocation returns null
		if(page==NULL){
  8004202e02:	48 83 7d c0 00       	cmpq   $0x0,-0x40(%rbp)
  8004202e07:	75 0a                	jne    8004202e13 <pml4e_walk+0x166>
			return NULL;
  8004202e09:	b8 00 00 00 00       	mov    $0x0,%eax
  8004202e0e:	e9 0c 01 00 00       	jmpq   8004202f1f <pml4e_walk+0x272>
		}

		//the new page's reference count is incremented,
		page->pp_ref++;
  8004202e13:	48 8b 45 c0          	mov    -0x40(%rbp),%rax
  8004202e17:	0f b7 40 08          	movzwl 0x8(%rax),%eax
  8004202e1b:	8d 50 01             	lea    0x1(%rax),%edx
  8004202e1e:	48 8b 45 c0          	mov    -0x40(%rbp),%rax
  8004202e22:	66 89 50 08          	mov    %dx,0x8(%rax)


		//assign to page to pdpe and then pte poiinter
		pml4e[PML4(va)] = (page2pa(page) & ~0xFFF) | PTE_U | PTE_P | PTE_W;
  8004202e26:	48 8b 45 a0          	mov    -0x60(%rbp),%rax
  8004202e2a:	48 c1 e8 27          	shr    $0x27,%rax
  8004202e2e:	25 ff 01 00 00       	and    $0x1ff,%eax
  8004202e33:	48 8d 14 c5 00 00 00 	lea    0x0(,%rax,8),%rdx
  8004202e3a:	00 
  8004202e3b:	48 8b 45 a8          	mov    -0x58(%rbp),%rax
  8004202e3f:	48 8d 1c 02          	lea    (%rdx,%rax,1),%rbx
  8004202e43:	48 8b 45 c0          	mov    -0x40(%rbp),%rax
  8004202e47:	48 89 c7             	mov    %rax,%rdi
  8004202e4a:	48 b8 18 19 20 04 80 	movabs $0x8004201918,%rax
  8004202e51:	00 00 00 
  8004202e54:	ff d0                	callq  *%rax
  8004202e56:	48 25 00 f0 ff ff    	and    $0xfffffffffffff000,%rax
  8004202e5c:	48 83 c8 07          	or     $0x7,%rax
  8004202e60:	48 89 03             	mov    %rax,(%rbx)

		ptr_pdpe = (pdpe_t *) KADDR(PTE_ADDR(pml4e[PML4(va)]));
  8004202e63:	48 8b 45 a0          	mov    -0x60(%rbp),%rax
  8004202e67:	48 c1 e8 27          	shr    $0x27,%rax
  8004202e6b:	25 ff 01 00 00       	and    $0x1ff,%eax
  8004202e70:	48 8d 14 c5 00 00 00 	lea    0x0(,%rax,8),%rdx
  8004202e77:	00 
  8004202e78:	48 8b 45 a8          	mov    -0x58(%rbp),%rax
  8004202e7c:	48 01 d0             	add    %rdx,%rax
  8004202e7f:	48 8b 00             	mov    (%rax),%rax
  8004202e82:	48 25 00 f0 ff ff    	and    $0xfffffffffffff000,%rax
  8004202e88:	48 89 45 b8          	mov    %rax,-0x48(%rbp)
  8004202e8c:	48 8b 45 b8          	mov    -0x48(%rbp),%rax
  8004202e90:	48 c1 e8 0c          	shr    $0xc,%rax
  8004202e94:	89 45 b4             	mov    %eax,-0x4c(%rbp)
  8004202e97:	8b 55 b4             	mov    -0x4c(%rbp),%edx
  8004202e9a:	48 b8 30 37 36 04 80 	movabs $0x8004363730,%rax
  8004202ea1:	00 00 00 
  8004202ea4:	48 8b 00             	mov    (%rax),%rax
  8004202ea7:	48 39 c2             	cmp    %rax,%rdx
  8004202eaa:	72 32                	jb     8004202ede <pml4e_walk+0x231>
  8004202eac:	48 8b 45 b8          	mov    -0x48(%rbp),%rax
  8004202eb0:	48 89 c1             	mov    %rax,%rcx
  8004202eb3:	48 ba e8 65 21 04 80 	movabs $0x80042165e8,%rdx
  8004202eba:	00 00 00 
  8004202ebd:	be 6b 02 00 00       	mov    $0x26b,%esi
  8004202ec2:	48 bf 76 66 21 04 80 	movabs $0x8004216676,%rdi
  8004202ec9:	00 00 00 
  8004202ecc:	b8 00 00 00 00       	mov    $0x0,%eax
  8004202ed1:	49 b8 9b 04 20 04 80 	movabs $0x800420049b,%r8
  8004202ed8:	00 00 00 
  8004202edb:	41 ff d0             	callq  *%r8
  8004202ede:	48 ba 00 00 00 04 80 	movabs $0x8004000000,%rdx
  8004202ee5:	00 00 00 
  8004202ee8:	48 8b 45 b8          	mov    -0x48(%rbp),%rax
  8004202eec:	48 01 d0             	add    %rdx,%rax
  8004202eef:	48 89 45 d8          	mov    %rax,-0x28(%rbp)
		ptr_pte = pdpe_walk(ptr_pdpe, va, create);
  8004202ef3:	8b 55 9c             	mov    -0x64(%rbp),%edx
  8004202ef6:	48 8b 4d a0          	mov    -0x60(%rbp),%rcx
  8004202efa:	48 8b 45 d8          	mov    -0x28(%rbp),%rax
  8004202efe:	48 89 ce             	mov    %rcx,%rsi
  8004202f01:	48 89 c7             	mov    %rax,%rdi
  8004202f04:	48 b8 26 2f 20 04 80 	movabs $0x8004202f26,%rax
  8004202f0b:	00 00 00 
  8004202f0e:	ff d0                	callq  *%rax
  8004202f10:	48 89 45 e0          	mov    %rax,-0x20(%rbp)
		return ptr_pte;
  8004202f14:	48 8b 45 e0          	mov    -0x20(%rbp),%rax
  8004202f18:	eb 05                	jmp    8004202f1f <pml4e_walk+0x272>
	}

	//return ptr_pte;
	return NULL;
  8004202f1a:	b8 00 00 00 00       	mov    $0x0,%eax
}
  8004202f1f:	48 83 c4 68          	add    $0x68,%rsp
  8004202f23:	5b                   	pop    %rbx
  8004202f24:	5d                   	pop    %rbp
  8004202f25:	c3                   	retq   

0000008004202f26 <pdpe_walk>:
// Given a pdpe i.e page directory pointer pdpe_walk returns the pointer to page table entry
// The programming logic in this function is similar to pml4e_walk.
// It calls the pgdir_walk which returns the page_table entry pointer.
// Hints are the same as in pml4e_walk
pte_t *
pdpe_walk(pdpe_t *pdpe,const void *va,int create){
  8004202f26:	55                   	push   %rbp
  8004202f27:	48 89 e5             	mov    %rsp,%rbp
  8004202f2a:	53                   	push   %rbx
  8004202f2b:	48 83 ec 68          	sub    $0x68,%rsp
  8004202f2f:	48 89 7d a8          	mov    %rdi,-0x58(%rbp)
  8004202f33:	48 89 75 a0          	mov    %rsi,-0x60(%rbp)
  8004202f37:	89 55 9c             	mov    %edx,-0x64(%rbp)

	uint64_t temp_pdpe = PDPE(va);
  8004202f3a:	48 8b 45 a0          	mov    -0x60(%rbp),%rax
  8004202f3e:	48 c1 e8 1e          	shr    $0x1e,%rax
  8004202f42:	25 ff 01 00 00       	and    $0x1ff,%eax
  8004202f47:	48 89 45 e8          	mov    %rax,-0x18(%rbp)
	//cprintf("va= %p\t%x\n", va, PDPE(va));

	if(!*pdpe && !create){
  8004202f4b:	48 8b 45 a8          	mov    -0x58(%rbp),%rax
  8004202f4f:	48 8b 00             	mov    (%rax),%rax
  8004202f52:	48 85 c0             	test   %rax,%rax
  8004202f55:	75 10                	jne    8004202f67 <pdpe_walk+0x41>
  8004202f57:	83 7d 9c 00          	cmpl   $0x0,-0x64(%rbp)
  8004202f5b:	75 0a                	jne    8004202f67 <pdpe_walk+0x41>
		return NULL;
  8004202f5d:	b8 00 00 00 00       	mov    $0x0,%eax
  8004202f62:	e9 7b 02 00 00       	jmpq   80042031e2 <pdpe_walk+0x2bc>
	}

        pte_t *ptr_pte = NULL;
  8004202f67:	48 c7 45 e0 00 00 00 	movq   $0x0,-0x20(%rbp)
  8004202f6e:	00 
        pde_t *ptr_pde = NULL;
  8004202f6f:	48 c7 45 d8 00 00 00 	movq   $0x0,-0x28(%rbp)
  8004202f76:	00 


        if(pdpe[PDPE(va)] & PTE_P){
  8004202f77:	48 8b 45 a0          	mov    -0x60(%rbp),%rax
  8004202f7b:	48 c1 e8 1e          	shr    $0x1e,%rax
  8004202f7f:	25 ff 01 00 00       	and    $0x1ff,%eax
  8004202f84:	48 8d 14 c5 00 00 00 	lea    0x0(,%rax,8),%rdx
  8004202f8b:	00 
  8004202f8c:	48 8b 45 a8          	mov    -0x58(%rbp),%rax
  8004202f90:	48 01 d0             	add    %rdx,%rax
  8004202f93:	48 8b 00             	mov    (%rax),%rax
  8004202f96:	83 e0 01             	and    $0x1,%eax
  8004202f99:	48 85 c0             	test   %rax,%rax
  8004202f9c:	0f 84 04 01 00 00    	je     80042030a6 <pdpe_walk+0x180>
		pdpe[PDPE(va)] = (pdpe[PDPE(va)] & ~0xFFF) | PTE_U | PTE_P | PTE_W;
  8004202fa2:	48 8b 45 a0          	mov    -0x60(%rbp),%rax
  8004202fa6:	48 c1 e8 1e          	shr    $0x1e,%rax
  8004202faa:	25 ff 01 00 00       	and    $0x1ff,%eax
  8004202faf:	48 8d 14 c5 00 00 00 	lea    0x0(,%rax,8),%rdx
  8004202fb6:	00 
  8004202fb7:	48 8b 45 a8          	mov    -0x58(%rbp),%rax
  8004202fbb:	48 01 d0             	add    %rdx,%rax
  8004202fbe:	48 8b 55 a0          	mov    -0x60(%rbp),%rdx
  8004202fc2:	48 c1 ea 1e          	shr    $0x1e,%rdx
  8004202fc6:	81 e2 ff 01 00 00    	and    $0x1ff,%edx
  8004202fcc:	48 8d 0c d5 00 00 00 	lea    0x0(,%rdx,8),%rcx
  8004202fd3:	00 
  8004202fd4:	48 8b 55 a8          	mov    -0x58(%rbp),%rdx
  8004202fd8:	48 01 ca             	add    %rcx,%rdx
  8004202fdb:	48 8b 12             	mov    (%rdx),%rdx
  8004202fde:	48 81 e2 00 f0 ff ff 	and    $0xfffffffffffff000,%rdx
  8004202fe5:	48 83 ca 07          	or     $0x7,%rdx
  8004202fe9:	48 89 10             	mov    %rdx,(%rax)

		ptr_pde = (pde_t *)KADDR(PTE_ADDR(pdpe[PDPE(va)]));
  8004202fec:	48 8b 45 a0          	mov    -0x60(%rbp),%rax
  8004202ff0:	48 c1 e8 1e          	shr    $0x1e,%rax
  8004202ff4:	25 ff 01 00 00       	and    $0x1ff,%eax
  8004202ff9:	48 8d 14 c5 00 00 00 	lea    0x0(,%rax,8),%rdx
  8004203000:	00 
  8004203001:	48 8b 45 a8          	mov    -0x58(%rbp),%rax
  8004203005:	48 01 d0             	add    %rdx,%rax
  8004203008:	48 8b 00             	mov    (%rax),%rax
  800420300b:	48 25 00 f0 ff ff    	and    $0xfffffffffffff000,%rax
  8004203011:	48 89 45 d0          	mov    %rax,-0x30(%rbp)
  8004203015:	48 8b 45 d0          	mov    -0x30(%rbp),%rax
  8004203019:	48 c1 e8 0c          	shr    $0xc,%rax
  800420301d:	89 45 cc             	mov    %eax,-0x34(%rbp)
  8004203020:	8b 55 cc             	mov    -0x34(%rbp),%edx
  8004203023:	48 b8 30 37 36 04 80 	movabs $0x8004363730,%rax
  800420302a:	00 00 00 
  800420302d:	48 8b 00             	mov    (%rax),%rax
  8004203030:	48 39 c2             	cmp    %rax,%rdx
  8004203033:	72 32                	jb     8004203067 <pdpe_walk+0x141>
  8004203035:	48 8b 45 d0          	mov    -0x30(%rbp),%rax
  8004203039:	48 89 c1             	mov    %rax,%rcx
  800420303c:	48 ba e8 65 21 04 80 	movabs $0x80042165e8,%rdx
  8004203043:	00 00 00 
  8004203046:	be 8a 02 00 00       	mov    $0x28a,%esi
  800420304b:	48 bf 76 66 21 04 80 	movabs $0x8004216676,%rdi
  8004203052:	00 00 00 
  8004203055:	b8 00 00 00 00       	mov    $0x0,%eax
